(dp0
S'TwoQCache'
p1
ccache
TwoQCache
p2
sS'code'
p3
(dp0
S'TwoQCache'
p1
ccache
TwoQCache
p2
sS'code'
p3
ccollections
defaultdict
p0
(c__builtin__
dict
p1
tp2
Rp3
S'2Q'
p4
(dp5
S'spacing'
p6
g0
(c__builtin__
int
p7
tp8
Rp9
sS'practice'
p10
g0
(g7
tp11
Rp12
I1
I7788
sI2
I4264
sI3
I2870
sI4
I2187
sI5
I1788
sI6
I1409
sI7
I1232
sI8
I1027
sI9
I918
sI10
I825
sI11
I681
sI12
I650
sI13
I573
sI14
I509
sI15
I501
sI16
I432
sI17
I414
sI18
I399
sI19
I354
sI20
I315
sI21
I340
sI22
I270
sI23
I265
sI24
I252
sI25
I228
sI26
I205
sI27
I203
sI28
I204
sI29
I173
sI30
I164
sI31
I167
sI32
I145
sI33
I132
sI34
I125
sI35
I111
sI36
I109
sI37
I121
sI38
I86
sI39
I100
sI40
I84
sI41
I81
sI42
I86
sI43
I77
sI44
I63
sI45
I84
sI46
I69
sI47
I65
sI48
I64
sI49
I66
sI50
I55
sI51
I55
sI52
I57
sI53
I48
sI54
I59
sI55
I28
sI56
I30
sI57
I46
sI58
I33
sI59
I42
sI60
I38
sI61
I26
sI62
I27
sI63
I35
sI64
I27
sI65
I27
sI66
I29
sI67
I17
sI68
I31
sI69
I23
sI70
I21
sI71
I17
sI72
I21
sI73
I14
sI74
I16
sI75
I11
sI76
I14
sI77
I13
sI78
I18
sI79
I20
sI80
I7
sI81
I14
sI82
I13
sI83
I9
sI84
I14
sI85
I12
sI86
I11
sI87
I9
sI88
I13
sI89
I7
sI90
I13
sI91
I13
sI92
I6
sI93
I9
sI94
I3
sI95
I13
sI96
I5
sI97
I11
sI98
I5
sI99
I12
sI100
I7
sI101
I3
sI102
I4
sI103
I5
sI104
I5
sI105
I7
sI106
I11
sI107
I2
sI108
I7
sI109
I2
sI110
I3
sI111
I4
sI112
I7
sI113
I3
sI114
I3
sI115
I2
sI116
I1
sI117
I3
sI118
I5
sI119
I1
sI121
I2
sI122
I2
sI123
I4
sI124
I2
sI125
I2
sI126
I1
sI127
I2
sI128
I4
sI129
I5
sI130
I3
sI131
I1
sI132
I2
sI133
I2
sI134
I2
sI135
I3
sI136
I2
sI137
I4
sI138
I2
sI139
I1
sI141
I3
sI142
I4
sI143
I2
sI144
I2
sI145
I4
sI147
I2
sI149
I3
sI151
I2
sI152
I1
sI153
I2
sI154
I1
sI155
I1
sI156
I3
sI157
I2
sI158
I1
sI159
I2
sI161
I4
sI163
I2
sI164
I1
sI165
I1
sI166
I2
sI168
I3
sI169
I2
sI170
I3
sI171
I1
sI172
I1
sI173
I1
sI174
I4
sI175
I2
sI176
I1
sI177
I2
sI178
I1
sI179
I2
sI180
I1
sI182
I1
sI184
I2
sI190
I1
sI193
I1
sI199
I1
sI206
I1
sI208
I1
sI232
I1
sI235
I1
sI241
I1
sI251
I1
sI256
I1
sI283
I1
sI313
I1
sI318
I1
ssS'recency'
p13
g0
(g7
tp14
Rp15
I0
I4
sI1
I5
sI2
I12
sI3
I11
sI4
I4
sI5
I10
sI6
I11
sI7
I7
sI8
I7
sI9
I6
sI10
I5
sI11
I5
sI12
I7
sI13
I6
sI14
I14
sI15
I7
sI16
I2
sI17
I9
sI18
I10
sI19
I9
sI20
I15
sI21
I11
sI22
I12
sI23
I9
sI24
I7
sI25
I13
sI26
I5
sI27
I9
sI28
I7
sI29
I2
sI30
I6
sI31
I9
sI32
I2
sI33
I3
sI34
I5
sI35
I7
sI36
I4
sI37
I4
sI38
I11
sI39
I8
sI40
I6
sI41
I11
sI42
I9
sI43
I4
sI44
I5
sI45
I7
sI46
I8
sI47
I8
sI48
I12
sI49
I4
sI50
I6
sI51
I8
sI52
I6
sI53
I6
sI54
I5
sI55
I8
sI56
I10
sI57
I4
sI58
I9
sI59
I10
sI60
I9
sI61
I8
sI62
I3
sI63
I3
sI64
I5
sI65
I3
sI66
I6
sI67
I9
sI68
I8
sI69
I4
sI70
I4
sI71
I6
sI72
I11
sI73
I4
sI74
I10
sI75
I5
sI76
I8
sI77
I10
sI78
I10
sI79
I6
sI80
I9
sI81
I6
sI82
I9
sI83
I3
sI84
I4
sI85
I9
sI86
I4
sI87
I6
sI88
I12
sI89
I8
sI90
I4
sI91
I6
sI92
I6
sI93
I5
sI94
I11
sI95
I7
sI96
I9
sI97
I10
sI98
I2
sI99
I10
sI100
I9
sI101
I4
sI102
I8
sI103
I7
sI104
I8
sI105
I5
sI106
I4
sI107
I7
sI108
I2
sI109
I8
sI110
I1
sI111
I6
sI112
I4
sI113
I6
sI114
I4
sI115
I9
sI116
I8
sI117
I6
sI118
I7
sI119
I7
sI120
I5
sI121
I8
sI122
I6
sI123
I5
sI124
I3
sI125
I3
sI126
I3
sI127
I1
sI128
I8
sI129
I9
sI130
I5
sI131
I10
sI132
I5
sI133
I8
sI134
I9
sI135
I7
sI136
I10
sI137
I3
sI138
I9
sI139
I8
sI140
I9
sI141
I4
sI142
I7
sI143
I3
sI144
I3
sI145
I5
sI146
I11
sI147
I12
sI148
I8
sI149
I1
sI150
I8
sI151
I5
sI152
I6
sI153
I7
sI154
I10
sI155
I7
sI156
I8
sI157
I7
sI158
I5
sI159
I6
sI160
I3
sI161
I4
sI162
I7
sI163
I6
sI164
I4
sI165
I3
sI166
I9
sI167
I5
sI168
I5
sI169
I4
sI170
I9
sI171
I8
sI172
I9
sI173
I4
sI174
I1
sI175
I11
sI176
I4
sI177
I7
sI178
I5
sI179
I7
sI180
I8
sI181
I7
sI182
I5
sI183
I7
sI184
I10
sI185
I6
sI186
I7
sI187
I6
sI188
I3
sI189
I6
sI190
I7
sI191
I6
sI192
I7
sI193
I3
sI194
I7
sI195
I7
sI196
I4
sI197
I4
sI198
I7
sI199
I10
sI200
I6
sI201
I13
sI202
I5
sI203
I4
sI204
I6
sI205
I3
sI206
I8
sI207
I3
sI208
I10
sI209
I8
sI210
I11
sI211
I7
sI212
I7
sI213
I4
sI214
I6
sI215
I8
sI216
I6
sI217
I5
sI218
I4
sI219
I2
sI220
I5
sI221
I6
sI222
I5
sI223
I3
sI224
I9
sI225
I8
sI226
I7
sI227
I14
sI228
I2
sI229
I6
sI230
I11
sI231
I6
sI232
I3
sI233
I8
sI234
I5
sI235
I4
sI236
I4
sI237
I5
sI238
I6
sI239
I6
sI240
I7
sI241
I10
sI242
I8
sI243
I6
sI244
I13
sI246
I5
sI247
I7
sI248
I6
sI249
I10
sI250
I4
sI251
I8
sI252
I3
sI253
I11
sI254
I5
sI255
I1
sI256
I5
sI257
I5
sI258
I3
sI259
I4
sI260
I5
sI261
I6
sI262
I8
sI263
I7
sI264
I6
sI265
I5
sI266
I6
sI267
I5
sI268
I8
sI269
I4
sI270
I6
sI271
I6
sI272
I7
sI273
I3
sI274
I7
sI275
I6
sI276
I6
sI277
I6
sI278
I2
sI279
I5
sI280
I9
sI281
I5
sI282
I7
sI283
I6
sI284
I5
sI285
I4
sI286
I8
sI287
I4
sI288
I5
sI289
I5
sI290
I6
sI291
I10
sI292
I10
sI293
I5
sI294
I9
sI295
I10
sI296
I7
sI297
I6
sI298
I2
sI299
I5
sI300
I5
sI301
I2
sI302
I11
sI303
I3
sI304
I6
sI305
I10
sI306
I5
sI307
I11
sI308
I8
sI309
I5
sI310
I9
sI311
I4
sI312
I12
sI313
I5
sI314
I2
sI315
I6
sI316
I3
sI317
I6
sI318
I3
sI319
I6
sI320
I2
sI321
I4
sI322
I4
sI323
I3
sI324
I11
sI325
I3
sI326
I7
sI327
I5
sI328
I3
sI329
I7
sI330
I6
sI331
I7
sI332
I8
sI333
I9
sI334
I4
sI335
I10
sI336
I7
sI337
I6
sI338
I4
sI339
I9
sI340
I6
sI341
I9
sI342
I5
sI343
I3
sI344
I4
sI345
I4
sI346
I11
sI347
I3
sI348
I7
sI349
I4
sI350
I8
sI351
I5
sI352
I7
sI353
I5
sI354
I6
sI355
I7
sI356
I4
sI357
I4
sI358
I11
sI359
I8
sI360
I4
sI361
I8
sI362
I6
sI363
I5
sI364
I6
sI365
I5
sI366
I6
sI367
I3
sI368
I9
sI369
I10
sI370
I7
sI371
I10
sI372
I3
sI373
I6
sI374
I3
sI375
I7
sI376
I4
sI377
I6
sI378
I7
sI379
I3
sI380
I9
sI381
I2
sI382
I7
sI383
I8
sI384
I8
sI385
I6
sI386
I8
sI387
I5
sI388
I10
sI389
I6
sI390
I4
sI391
I8
sI392
I5
sI393
I6
sI394
I7
sI395
I7
sI396
I3
sI397
I8
sI398
I2
sI399
I5
sI400
I4
sI401
I2
sI402
I2
sI403
I5
sI404
I7
sI405
I3
sI406
I9
sI407
I8
sI408
I5
sI409
I3
sI410
I5
sI411
I5
sI412
I12
sI413
I5
sI414
I4
sI415
I6
sI416
I3
sI417
I2
sI418
I7
sI419
I2
sI420
I5
sI421
I2
sI422
I6
sI423
I7
sI424
I6
sI425
I5
sI426
I6
sI427
I7
sI428
I4
sI429
I5
sI430
I6
sI431
I2
sI432
I5
sI433
I13
sI434
I8
sI435
I4
sI436
I8
sI437
I6
sI438
I8
sI439
I3
sI440
I3
sI441
I5
sI442
I5
sI443
I3
sI444
I1
sI445
I4
sI446
I2
sI447
I9
sI448
I5
sI449
I4
sI450
I5
sI451
I5
sI452
I6
sI453
I3
sI454
I4
sI455
I3
sI456
I3
sI457
I3
sI458
I7
sI459
I4
sI460
I7
sI461
I3
sI462
I3
sI463
I10
sI464
I4
sI465
I6
sI466
I6
sI467
I2
sI469
I4
sI470
I4
sI471
I3
sI472
I5
sI473
I7
sI474
I5
sI475
I6
sI476
I3
sI477
I4
sI478
I2
sI479
I3
sI480
I6
sI481
I5
sI482
I5
sI483
I5
sI484
I7
sI485
I5
sI486
I5
sI487
I7
sI488
I4
sI489
I2
sI490
I9
sI491
I5
sI492
I7
sI493
I5
sI494
I7
sI495
I4
sI496
I2
sI497
I5
sI498
I6
sI499
I5
sI500
I6
sI501
I5
sI502
I4
sI503
I7
sI504
I3
sI505
I3
sI506
I8
sI507
I9
sI508
I4
sI509
I5
sI510
I8
sI511
I7
sI512
I4
sI513
I6
sI514
I4
sI515
I5
sI516
I7
sI517
I6
sI518
I4
sI519
I5
sI520
I5
sI521
I7
sI522
I2
sI523
I6
sI524
I3
sI525
I3
sI526
I7
sI527
I3
sI528
I6
sI529
I3
sI530
I6
sI531
I6
sI532
I6
sI533
I1
sI534
I4
sI535
I5
sI536
I6
sI537
I5
sI538
I5
sI539
I11
sI540
I5
sI541
I3
sI542
I5
sI543
I4
sI544
I4
sI545
I6
sI546
I6
sI547
I4
sI548
I5
sI549
I6
sI550
I6
sI551
I5
sI552
I6
sI553
I8
sI554
I8
sI555
I5
sI556
I7
sI557
I4
sI558
I4
sI559
I9
sI560
I3
sI561
I6
sI562
I7
sI563
I7
sI564
I2
sI565
I3
sI566
I5
sI567
I3
sI568
I3
sI569
I5
sI570
I4
sI571
I9
sI572
I6
sI573
I3
sI574
I4
sI575
I2
sI576
I1
sI577
I2
sI578
I6
sI579
I2
sI580
I5
sI581
I3
sI582
I10
sI583
I7
sI584
I3
sI585
I8
sI586
I2
sI587
I2
sI588
I2
sI589
I6
sI590
I6
sI591
I4
sI592
I10
sI593
I4
sI594
I5
sI595
I3
sI596
I7
sI597
I10
sI598
I5
sI599
I1
sI600
I4
sI601
I2
sI602
I10
sI603
I4
sI604
I2
sI605
I2
sI606
I4
sI607
I6
sI608
I4
sI609
I4
sI610
I4
sI612
I2
sI613
I7
sI614
I2
sI615
I9
sI616
I6
sI617
I5
sI618
I4
sI619
I2
sI620
I4
sI621
I8
sI622
I9
sI623
I8
sI624
I4
sI625
I5
sI626
I3
sI627
I4
sI628
I3
sI629
I5
sI630
I3
sI631
I8
sI632
I4
sI633
I6
sI634
I4
sI635
I3
sI636
I6
sI637
I10
sI638
I2
sI639
I5
sI640
I4
sI641
I7
sI642
I5
sI643
I11
sI644
I2
sI645
I3
sI646
I6
sI647
I5
sI648
I5
sI649
I2
sI650
I8
sI651
I6
sI652
I6
sI653
I3
sI654
I9
sI655
I7
sI656
I8
sI657
I5
sI658
I9
sI659
I6
sI660
I8
sI661
I7
sI662
I6
sI663
I6
sI664
I4
sI665
I7
sI666
I5
sI667
I8
sI668
I5
sI669
I5
sI670
I6
sI671
I9
sI672
I1
sI673
I5
sI674
I3
sI675
I6
sI676
I5
sI677
I5
sI678
I5
sI679
I3
sI680
I7
sI681
I2
sI682
I4
sI683
I3
sI684
I7
sI685
I3
sI686
I3
sI687
I5
sI688
I6
sI689
I9
sI690
I6
sI691
I6
sI692
I5
sI693
I3
sI694
I9
sI695
I4
sI696
I7
sI697
I4
sI698
I9
sI699
I7
sI700
I3
sI701
I5
sI702
I11
sI703
I9
sI704
I5
sI705
I4
sI706
I6
sI707
I7
sI708
I4
sI709
I8
sI710
I3
sI711
I5
sI712
I9
sI713
I7
sI714
I7
sI715
I6
sI716
I4
sI718
I2
sI719
I9
sI720
I2
sI721
I4
sI722
I2
sI723
I3
sI725
I5
sI726
I4
sI727
I7
sI728
I4
sI729
I6
sI730
I7
sI731
I5
sI732
I5
sI733
I2
sI734
I6
sI735
I3
sI736
I4
sI737
I3
sI738
I2
sI739
I6
sI740
I1
sI741
I9
sI742
I1
sI743
I7
sI744
I4
sI745
I2
sI746
I3
sI747
I5
sI748
I4
sI749
I4
sI750
I2
sI751
I5
sI752
I5
sI753
I6
sI754
I7
sI755
I5
sI756
I5
sI757
I5
sI758
I9
sI759
I4
sI760
I7
sI761
I4
sI762
I10
sI764
I7
sI766
I4
sI767
I5
sI768
I10
sI769
I5
sI770
I11
sI771
I3
sI772
I7
sI773
I4
sI774
I4
sI775
I6
sI776
I4
sI777
I3
sI778
I5
sI779
I7
sI780
I2
sI781
I2
sI782
I8
sI783
I6
sI784
I3
sI785
I7
sI786
I5
sI787
I3
sI788
I5
sI789
I3
sI790
I4
sI791
I2
sI792
I3
sI793
I5
sI794
I9
sI795
I2
sI796
I4
sI797
I3
sI799
I6
sI800
I4
sI801
I3
sI802
I4
sI803
I7
sI804
I8
sI805
I5
sI806
I5
sI807
I8
sI808
I5
sI809
I8
sI810
I10
sI811
I6
sI812
I8
sI813
I4
sI814
I4
sI815
I2
sI816
I1
sI817
I4
sI818
I4
sI819
I10
sI820
I7
sI821
I6
sI822
I9
sI823
I1
sI824
I7
sI825
I10
sI826
I3
sI827
I4
sI828
I5
sI829
I5
sI830
I6
sI831
I4
sI832
I2
sI833
I7
sI834
I4
sI835
I2
sI836
I5
sI837
I4
sI838
I8
sI839
I6
sI840
I2
sI841
I9
sI842
I8
sI843
I3
sI844
I6
sI845
I5
sI846
I2
sI847
I5
sI848
I5
sI849
I4
sI850
I2
sI851
I4
sI852
I9
sI853
I5
sI854
I6
sI855
I4
sI856
I4
sI857
I2
sI858
I4
sI859
I2
sI860
I7
sI861
I5
sI862
I4
sI863
I5
sI864
I5
sI865
I4
sI866
I7
sI867
I11
sI868
I5
sI869
I2
sI870
I6
sI871
I7
sI872
I6
sI873
I6
sI874
I8
sI875
I4
sI876
I3
sI877
I6
sI878
I2
sI879
I4
sI880
I3
sI881
I3
sI882
I6
sI883
I6
sI884
I4
sI885
I5
sI886
I6
sI887
I7
sI888
I6
sI889
I3
sI890
I5
sI891
I3
sI892
I8
sI893
I9
sI894
I3
sI895
I3
sI896
I9
sI897
I4
sI898
I3
sI899
I4
sI900
I2
sI901
I3
sI902
I3
sI903
I6
sI904
I3
sI905
I3
sI906
I4
sI907
I9
sI908
I6
sI909
I2
sI910
I2
sI911
I6
sI912
I3
sI913
I3
sI914
I6
sI916
I6
sI917
I5
sI918
I3
sI919
I9
sI920
I2
sI921
I3
sI922
I4
sI923
I8
sI924
I7
sI925
I2
sI926
I6
sI927
I4
sI928
I5
sI929
I1
sI930
I2
sI931
I6
sI932
I9
sI933
I7
sI934
I7
sI935
I4
sI936
I4
sI937
I4
sI938
I2
sI939
I3
sI940
I1
sI941
I8
sI942
I7
sI943
I3
sI944
I7
sI945
I10
sI946
I5
sI947
I1
sI948
I6
sI949
I4
sI950
I5
sI951
I3
sI952
I5
sI953
I5
sI954
I9
sI955
I2
sI956
I1
sI957
I6
sI958
I5
sI959
I8
sI960
I2
sI961
I6
sI962
I3
sI963
I3
sI964
I7
sI965
I2
sI966
I1
sI967
I4
sI968
I6
sI969
I8
sI970
I6
sI971
I3
sI972
I4
sI973
I9
sI974
I6
sI975
I5
sI976
I6
sI977
I6
sI978
I6
sI979
I8
sI980
I5
sI981
I3
sI982
I3
sI983
I2
sI984
I5
sI985
I3
sI986
I7
sI987
I5
sI988
I3
sI989
I4
sI990
I8
sI991
I5
sI992
I3
sI993
I4
sI994
I7
sI995
I7
sI996
I8
sI997
I3
sI998
I4
sI999
I11
sI1000
I8
sI1001
I4
sI1002
I8
sI1003
I3
sI1004
I7
sI1005
I7
sI1006
I11
sI1007
I5
sI1008
I9
sI1009
I8
sI1010
I5
sI1011
I4
sI1012
I7
sI1013
I9
sI1014
I7
sI1015
I4
sI1016
I12
sI1017
I4
sI1018
I12
sI1019
I5
sI1020
I5
sI1021
I7
sI1022
I6
sI1023
I9
sI1024
I11
sI1025
I7
sI1026
I12
sI1027
I4
sI1028
I6
sI1029
I14
sI1030
I5
sI1031
I9
sI1032
I12
sI1033
I10
sI1034
I6
sI1035
I13
sI1036
I9
sI1037
I9
sI1038
I14
sI1039
I18
sI1040
I15
sI1041
I12
sI1042
I14
sI1043
I14
sI1044
I17
sI1045
I19
sI1046
I28
sI1047
I27
sI1048
I20
sI1049
I22
sI1050
I19
sI1051
I19
sI1052
I23
sI1053
I26
sI1054
I26
sI1055
I21
sI1056
I28
sI1057
I17
sI1058
I26
sI1059
I27
sI1060
I31
sI1061
I19
sI1062
I23
sI1063
I31
sI1064
I30
sI1065
I23
sI1066
I33
sI1067
I29
sI1068
I34
sI1069
I53
sI1070
I34
sI1071
I54
sI1072
I55
sI1073
I37
sI1074
I58
sI1075
I59
sI1076
I46
sI1077
I56
sI1078
I55
sI1079
I58
sI1080
I62
sI1081
I57
sI1082
I52
sI1083
I65
sI1084
I58
sI1085
I67
sI1086
I63
sI1087
I79
sI1088
I67
sI1089
I79
sI1090
I106
sI1091
I81
sI1092
I78
sI1093
I100
sI1094
I100
sI1095
I74
sI1096
I81
sI1097
I83
sI1098
I100
sI1099
I84
sI1100
I60
sI1101
I65
sI1102
I52
sI1103
I78
sI1104
I69
sI1105
I62
sI1106
I61
sI1107
I77
sI1108
I93
sI1109
I80
sI1110
I82
sI1111
I70
sI1112
I75
sI1113
I80
sI1114
I94
sI1115
I82
sI1116
I74
sI1117
I95
sI1118
I77
sI1119
I93
sI1120
I115
sI1121
I85
sI1122
I103
sI1123
I114
sI1124
I99
sI1125
I125
sI1126
I97
sI1127
I110
sI1128
I97
sI1129
I98
sI1130
I114
sI1131
I111
sI1132
I136
sI1133
I122
sI1134
I143
sI1135
I124
sI1136
I160
sI1137
I137
sI1138
I147
sI1139
I161
sI1140
I135
sI1141
I156
sI1142
I185
sI1143
I161
sI1144
I193
sI1145
I201
sI1146
I178
sI1147
I197
sI1148
I214
sI1149
I138
sI1150
I196
sI1151
I194
sI1152
I152
sI1153
I155
sI1154
I152
sI1155
I164
sI1156
I140
sI1157
I146
sI1158
I158
sI1159
I157
sI1160
I149
sI1161
I142
sI1162
I180
sI1163
I164
sI1164
I152
sI1165
I159
sI1166
I163
sI1167
I154
sI1168
I171
sI1169
I158
sI1170
I205
sI1171
I183
sI1172
I181
sI1173
I196
sI1174
I198
sI1175
I163
sI1176
I190
sI1177
I186
sI1178
I239
sI1179
I202
sI1180
I252
sI1181
I207
sI1182
I204
sI1183
I189
sI1184
I184
sI1185
I188
sI1186
I194
sI1187
I202
sI1188
I192
sI1189
I192
sI1190
I227
sI1191
I165
sI1192
I207
sI1193
I214
sI1194
I176
sI1195
I160
sI1196
I168
sI1197
I163
sI1198
I191
sI1199
I167
sI1200
I188
sI1201
I188
sI1202
I191
sI1203
I185
sI1204
I192
sI1205
I194
sI1206
I196
sI1207
I191
sI1208
I203
sI1209
I204
sI1210
I210
sI1211
I192
sI1212
I219
sI1213
I227
sI1214
I223
sI1215
I181
sI1216
I181
sI1217
I165
sI1218
I153
sI1219
I162
sI1220
I193
sI1221
I167
sI1222
I147
sI1223
I172
sI1224
I153
sI1225
I136
sI1226
I167
sI1227
I186
sI1228
I141
sI1229
I159
sI1230
I170
sI1231
I151
sI1232
I130
sI1233
I117
sI1234
I139
sI1235
I130
sI1236
I128
sI1237
I121
sI1238
I114
sI1239
I101
sI1240
I95
sI1241
I109
sI1242
I147
sI1243
I137
sI1244
I147
sI1245
I120
sI1246
I155
sI1247
I128
sI1248
I124
sI1249
I105
sI1250
I102
sI1251
I153
sI1252
I124
sI1253
I111
sI1254
I90
sI1255
I88
sI1256
I107
sI1257
I94
sI1258
I92
sI1259
I87
sI1260
I75
sI1261
I70
sI1262
I64
sI1263
I67
sI1264
I65
sI1265
I47
sI1266
I39
sI1267
I42
sI1268
I47
sI1269
I56
sI1270
I39
sI1271
I35
sI1272
I19
sI1273
I30
sI1274
I21
sI1275
I30
sI1276
I22
sI1277
I18
sI1278
I17
sI1279
I18
sI1280
I20
sI1281
I15
sI1282
I17
sI1283
I10
sI1284
I24
sI1285
I17
sI1286
I23
sI1287
I13
sI1288
I22
sI1289
I15
sI1290
I16
sI1291
I15
sI1292
I22
sI1293
I17
sI1294
I14
sI1295
I22
sI1296
I11
sI1297
I14
sI1298
I15
sI1299
I9
sI1300
I9
sI1301
I7
sI1302
I12
sI1303
I8
sI1304
I8
sI1305
I13
sI1306
I12
sI1307
I10
sI1308
I5
sI1309
I8
sI1310
I4
sI1311
I10
sI1312
I8
sI1313
I8
sI1314
I7
sI1315
I11
sI1316
I10
sI1317
I14
sI1318
I9
sI1319
I8
sI1320
I9
sI1321
I6
sI1322
I2
sI1323
I9
sI1324
I7
sI1325
I5
sI1326
I7
sI1327
I6
sI1328
I7
sI1329
I6
sI1330
I10
sI1331
I5
sI1332
I3
sI1333
I3
sI1334
I4
sI1335
I3
sI1336
I6
sI1337
I5
sI1338
I3
sI1339
I4
sI1340
I6
sI1341
I6
sI1342
I8
sI1343
I6
sI1344
I6
sI1345
I3
sI1346
I4
sI1347
I5
sI1348
I4
sI1349
I9
sI1350
I2
sI1351
I4
sI1352
I4
sI1353
I8
sI1354
I5
sI1355
I5
sI1356
I2
sI1357
I4
sI1358
I5
sI1359
I2
sI1360
I4
sI1361
I3
sI1362
I5
sI1363
I2
sI1364
I4
sI1365
I4
sI1366
I7
sI1367
I6
sI1368
I3
sI1369
I4
sI1370
I5
sI1371
I6
sI1372
I3
sI1373
I5
sI1374
I9
sI1375
I7
sI1376
I5
sI1377
I4
sI1378
I6
sI1379
I3
sI1380
I12
sI1381
I8
sI1382
I5
sI1383
I9
sI1384
I10
sI1385
I6
sI1386
I3
sI1387
I5
sI1388
I4
sI1389
I1
sI1390
I3
sI1391
I5
sI1392
I5
sI1393
I3
sI1394
I10
sI1395
I5
sI1396
I2
sI1397
I4
sI1398
I2
sI1399
I2
sI1400
I6
sI1401
I3
sI1402
I2
sI1403
I3
sI1404
I3
sI1405
I4
sI1406
I2
sI1407
I1
sI1408
I4
sI1409
I2
sI1410
I6
sI1412
I1
sI1413
I3
sI1414
I3
sI1415
I5
sI1416
I5
sI1417
I2
sI1419
I1
sI1420
I1
sI1421
I1
sI1422
I2
sI1423
I4
sI1425
I4
sI1426
I1
sI1427
I1
sI1428
I2
sI1429
I2
sI1430
I2
sI1431
I1
sI1432
I1
sI1433
I3
sI1434
I1
sI1435
I2
sI1436
I1
sI1437
I2
sI1438
I1
sI1439
I1
sI1440
I3
sI1441
I1
sI1443
I1
sI1445
I2
sI1447
I1
sI1448
I1
sI1451
I2
sI1452
I2
sI1453
I7
sI1454
I5
sI1455
I2
sI1456
I2
sI1458
I1
sI1459
I3
sI1460
I1
sI1461
I1
sI1462
I3
sI1463
I4
sI1464
I2
sI1467
I1
sI1468
I1
sI1471
I2
sI1475
I2
sI1476
I1
sI1477
I2
sI1480
I1
sI1484
I1
sI1485
I1
sI1498
I1
sI1515
I1
sI1517
I1
sI1520
I1
sI1526
I1
sI1527
I1
sI1528
I1
sI1536
I3
sI1537
I1
sI1538
I2
sI1539
I8
sI1540
I3
sI1541
I1
sI1542
I1
sI1544
I3
sI1545
I4
sI1546
I1
sI1547
I3
sI1548
I5
sI1549
I2
sI1550
I2
sI1551
I10
sI1552
I5
sI1553
I8
sI1554
I12
sI1555
I4
sI1556
I3
sI1557
I10
sI1558
I7
sI1559
I3
sI1560
I3
sI1561
I5
sI1562
I1
sI1563
I3
sI1564
I1
sI1565
I2
sI1566
I1
sI1567
I3
sI1568
I4
sI1569
I1
sI1570
I3
sI1572
I1
sI1574
I4
sI1575
I2
sI1576
I3
sI1578
I4
sI1579
I2
sI1580
I3
sI1581
I5
sI1582
I10
sI1583
I12
sI1584
I8
sI1585
I8
sI1586
I3
sI1587
I3
sI1588
I8
sI1589
I5
sI1590
I13
sI1591
I17
sI1592
I18
sI1593
I5
sI1594
I7
sI1595
I7
sI1596
I8
sI1597
I4
sI1598
I3
sI1599
I4
sI1600
I3
sI1601
I3
sI1602
I3
sI1603
I3
sI1604
I1
sI1605
I2
sI1608
I1
sI1609
I1
ssS'not_evicted'
p16
I37806
ssS'ARC'
p17
(dp18
g6
g0
(g7
tp19
Rp20
sg10
g0
(g7
tp21
Rp22
I1
I8348
sI2
I4687
sI3
I3241
sI4
I2632
sI5
I2155
sI6
I1769
sI7
I1586
sI8
I1393
sI9
I1279
sI10
I1177
sI11
I1041
sI12
I985
sI13
I910
sI14
I800
sI15
I784
sI16
I694
sI17
I713
sI18
I636
sI19
I622
sI20
I559
sI21
I547
sI22
I539
sI23
I498
sI24
I480
sI25
I458
sI26
I436
sI27
I435
sI28
I390
sI29
I392
sI30
I357
sI31
I350
sI32
I321
sI33
I284
sI34
I300
sI35
I279
sI36
I268
sI37
I264
sI38
I255
sI39
I244
sI40
I258
sI41
I233
sI42
I251
sI43
I232
sI44
I221
sI45
I222
sI46
I218
sI47
I195
sI48
I205
sI49
I218
sI50
I184
sI51
I181
sI52
I183
sI53
I159
sI54
I159
sI55
I157
sI56
I149
sI57
I155
sI58
I142
sI59
I154
sI60
I140
sI61
I138
sI62
I125
sI63
I130
sI64
I121
sI65
I122
sI66
I125
sI67
I96
sI68
I115
sI69
I127
sI70
I107
sI71
I95
sI72
I98
sI73
I99
sI74
I105
sI75
I96
sI76
I103
sI77
I91
sI78
I107
sI79
I90
sI80
I74
sI81
I80
sI82
I86
sI83
I94
sI84
I84
sI85
I86
sI86
I87
sI87
I90
sI88
I77
sI89
I78
sI90
I77
sI91
I69
sI92
I68
sI93
I69
sI94
I70
sI95
I76
sI96
I63
sI97
I58
sI98
I71
sI99
I70
sI100
I58
sI101
I52
sI102
I46
sI103
I59
sI104
I56
sI105
I56
sI106
I77
sI107
I56
sI108
I64
sI109
I70
sI110
I60
sI111
I55
sI112
I55
sI113
I69
sI114
I50
sI115
I52
sI116
I54
sI117
I58
sI118
I52
sI119
I44
sI120
I38
sI121
I48
sI122
I52
sI123
I51
sI124
I40
sI125
I54
sI126
I50
sI127
I48
sI128
I43
sI129
I44
sI130
I39
sI131
I50
sI132
I50
sI133
I45
sI134
I43
sI135
I41
sI136
I42
sI137
I33
sI138
I53
sI139
I41
sI140
I54
sI141
I35
sI142
I40
sI143
I35
sI144
I43
sI145
I40
sI146
I37
sI147
I38
sI148
I50
sI149
I72
sI150
I39
sI151
I42
sI152
I33
sI153
I45
sI154
I40
sI155
I37
sI156
I31
sI157
I41
sI158
I42
sI159
I29
sI160
I33
sI161
I34
sI162
I45
sI163
I40
sI164
I43
sI165
I47
sI166
I37
sI167
I27
sI168
I32
sI169
I36
sI170
I38
sI171
I35
sI172
I25
sI173
I35
sI174
I26
sI175
I25
sI176
I41
sI177
I34
sI178
I32
sI179
I25
sI180
I32
sI181
I29
sI182
I32
sI183
I24
sI184
I32
sI185
I32
sI186
I32
sI187
I32
sI188
I40
sI189
I30
sI190
I34
sI191
I34
sI192
I25
sI193
I24
sI194
I34
sI195
I36
sI196
I39
sI197
I28
sI198
I30
sI199
I40
sI200
I30
sI201
I29
sI202
I17
sI203
I27
sI204
I28
sI205
I34
sI206
I38
sI207
I24
sI208
I32
sI209
I19
sI210
I27
sI211
I23
sI212
I31
sI213
I36
sI214
I29
sI215
I23
sI216
I23
sI217
I20
sI218
I19
sI219
I20
sI220
I26
sI221
I24
sI222
I26
sI223
I38
sI224
I24
sI225
I24
sI226
I22
sI227
I24
sI228
I22
sI229
I25
sI230
I27
sI231
I20
sI232
I26
sI233
I22
sI234
I23
sI235
I26
sI236
I35
sI237
I22
sI238
I22
sI239
I22
sI240
I20
sI241
I21
sI242
I29
sI243
I28
sI244
I24
sI245
I24
sI246
I30
sI247
I20
sI248
I23
sI249
I17
sI250
I29
sI251
I22
sI252
I26
sI253
I25
sI254
I32
sI255
I27
sI256
I29
sI257
I30
sI258
I21
sI259
I22
sI260
I23
sI261
I29
sI262
I22
sI263
I27
sI264
I19
sI265
I21
sI266
I16
sI267
I22
sI268
I24
sI269
I26
sI270
I32
sI271
I29
sI272
I30
sI273
I31
sI274
I23
sI275
I23
sI276
I33
sI277
I19
sI278
I22
sI279
I20
sI280
I18
sI281
I20
sI282
I17
sI283
I22
sI284
I29
sI285
I26
sI286
I34
sI287
I24
sI288
I19
sI289
I28
sI290
I25
sI291
I16
sI292
I22
sI293
I32
sI294
I24
sI295
I18
sI296
I24
sI297
I18
sI298
I24
sI299
I22
sI300
I19
sI301
I22
sI302
I17
sI303
I22
sI304
I25
sI305
I23
sI306
I19
sI307
I21
sI308
I19
sI309
I27
sI310
I18
sI311
I26
sI312
I19
sI313
I28
sI314
I22
sI315
I22
sI316
I15
sI317
I16
sI318
I18
sI319
I23
sI320
I15
sI321
I19
sI322
I19
sI323
I23
sI324
I24
sI325
I22
sI326
I20
sI327
I15
sI328
I21
sI329
I26
sI330
I22
sI331
I29
sI332
I24
sI333
I27
sI334
I23
sI335
I14
sI336
I32
sI337
I16
sI338
I30
sI339
I15
sI340
I20
sI341
I20
sI342
I14
sI343
I16
sI344
I16
sI345
I15
sI346
I15
sI347
I11
sI348
I21
sI349
I19
sI350
I23
sI351
I18
sI352
I30
sI353
I24
sI354
I26
sI355
I21
sI356
I16
sI357
I24
sI358
I21
sI359
I24
sI360
I18
sI361
I17
sI362
I13
sI363
I17
sI364
I16
sI365
I28
sI366
I18
sI367
I21
sI368
I22
sI369
I15
sI370
I12
sI371
I24
sI372
I18
sI373
I27
sI374
I20
sI375
I11
sI376
I20
sI377
I19
sI378
I10
sI379
I23
sI380
I14
sI381
I17
sI382
I30
sI383
I23
sI384
I17
sI385
I20
sI386
I16
sI387
I22
sI388
I20
sI389
I22
sI390
I12
sI391
I24
sI392
I12
sI393
I22
sI394
I16
sI395
I16
sI396
I12
sI397
I15
sI398
I13
sI399
I23
sI400
I20
sI401
I17
sI402
I17
sI403
I18
sI404
I20
sI405
I18
sI406
I19
sI407
I24
sI408
I26
sI409
I20
sI410
I16
sI411
I18
sI412
I17
sI413
I16
sI414
I22
sI415
I19
sI416
I17
sI417
I19
sI418
I11
sI419
I27
sI420
I19
sI421
I20
sI422
I16
sI423
I14
sI424
I24
sI425
I18
sI426
I15
sI427
I11
sI428
I12
sI429
I20
sI430
I18
sI431
I20
sI432
I13
sI433
I17
sI434
I26
sI435
I10
sI436
I15
sI437
I20
sI438
I23
sI439
I19
sI440
I16
sI441
I17
sI442
I15
sI443
I20
sI444
I16
sI445
I13
sI446
I16
sI447
I15
sI448
I24
sI449
I17
sI450
I23
sI451
I18
sI452
I21
sI453
I16
sI454
I20
sI455
I15
sI456
I19
sI457
I18
sI458
I17
sI459
I11
sI460
I15
sI461
I17
sI462
I20
sI463
I11
sI464
I15
sI465
I14
sI466
I14
sI467
I10
sI468
I11
sI469
I14
sI470
I20
sI471
I18
sI472
I10
sI473
I17
sI474
I13
sI475
I13
sI476
I11
sI477
I18
sI478
I18
sI479
I14
sI480
I24
sI481
I13
sI482
I16
sI483
I29
sI484
I17
sI485
I24
sI486
I14
sI487
I13
sI488
I20
sI489
I12
sI490
I18
sI491
I21
sI492
I18
sI493
I16
sI494
I17
sI495
I16
sI496
I14
sI497
I20
sI498
I16
sI499
I20
sI500
I17
sI501
I10
sI502
I15
sI503
I12
sI504
I16
sI505
I18
sI506
I11
sI507
I17
sI508
I17
sI509
I11
sI510
I13
sI511
I13
sI512
I16
sI513
I19
sI514
I21
sI515
I17
sI516
I24
sI517
I14
sI518
I14
sI519
I14
sI520
I12
sI521
I15
sI522
I10
sI523
I21
sI524
I14
sI525
I17
sI526
I12
sI527
I13
sI528
I21
sI529
I14
sI530
I15
sI531
I15
sI532
I12
sI533
I8
sI534
I25
sI535
I14
sI536
I25
sI537
I15
sI538
I15
sI539
I7
sI540
I17
sI541
I20
sI542
I20
sI543
I16
sI544
I17
sI545
I10
sI546
I14
sI547
I15
sI548
I16
sI549
I16
sI550
I13
sI551
I21
sI552
I18
sI553
I7
sI554
I15
sI555
I16
sI556
I14
sI557
I15
sI558
I9
sI559
I16
sI560
I18
sI561
I15
sI562
I18
sI563
I12
sI564
I12
sI565
I16
sI566
I15
sI567
I15
sI568
I13
sI569
I10
sI570
I10
sI571
I21
sI572
I7
sI573
I13
sI574
I6
sI575
I14
sI576
I17
sI577
I16
sI578
I14
sI579
I15
sI580
I13
sI581
I11
sI582
I17
sI583
I10
sI584
I10
sI585
I16
sI586
I7
sI587
I17
sI588
I10
sI589
I16
sI590
I16
sI591
I14
sI592
I15
sI593
I10
sI594
I8
sI595
I17
sI596
I13
sI597
I13
sI598
I21
sI599
I13
sI600
I11
sI601
I18
sI602
I14
sI603
I15
sI604
I11
sI605
I15
sI606
I10
sI607
I11
sI608
I19
sI609
I8
sI610
I11
sI611
I19
sI612
I14
sI613
I13
sI614
I16
sI615
I9
sI616
I17
sI617
I23
sI618
I12
sI619
I13
sI620
I14
sI621
I12
sI622
I10
sI623
I6
sI624
I21
sI625
I13
sI626
I10
sI627
I16
sI628
I11
sI629
I17
sI630
I19
sI631
I17
sI632
I10
sI633
I9
sI634
I12
sI635
I14
sI636
I20
sI637
I19
sI638
I15
sI639
I14
sI640
I14
sI641
I13
sI642
I11
sI643
I17
sI644
I13
sI645
I14
sI646
I15
sI647
I17
sI648
I16
sI649
I11
sI650
I19
sI651
I16
sI652
I13
sI653
I20
sI654
I13
sI655
I14
sI656
I15
sI657
I13
sI658
I13
sI659
I12
sI660
I13
sI661
I19
sI662
I13
sI663
I16
sI664
I14
sI665
I24
sI666
I19
sI667
I11
sI668
I11
sI669
I15
sI670
I13
sI671
I16
sI672
I9
sI673
I17
sI674
I11
sI675
I16
sI676
I20
sI677
I7
sI678
I10
sI679
I10
sI680
I13
sI681
I10
sI682
I11
sI683
I14
sI684
I19
sI685
I13
sI686
I14
sI687
I17
sI688
I19
sI689
I14
sI690
I12
sI691
I18
sI692
I13
sI693
I12
sI694
I12
sI695
I12
sI696
I9
sI697
I9
sI698
I10
sI699
I9
sI700
I16
sI701
I12
sI702
I10
sI703
I17
sI704
I18
sI705
I19
sI706
I14
sI707
I10
sI708
I12
sI709
I18
sI710
I22
sI711
I15
sI712
I10
sI713
I16
sI714
I10
sI715
I16
sI716
I10
sI717
I16
sI718
I12
sI719
I14
sI720
I15
sI721
I16
sI722
I13
sI723
I14
sI724
I12
sI725
I15
sI726
I15
sI727
I15
sI728
I11
sI729
I19
sI730
I15
sI731
I17
sI732
I11
sI733
I14
sI734
I14
sI735
I13
sI736
I18
sI737
I13
sI738
I16
sI739
I15
sI740
I9
sI741
I15
sI742
I13
sI743
I10
sI744
I15
sI745
I16
sI746
I18
sI747
I13
sI748
I13
sI749
I22
sI750
I14
sI751
I11
sI752
I12
sI753
I9
sI754
I13
sI755
I18
sI756
I13
sI757
I15
sI758
I15
sI759
I14
sI760
I12
sI761
I16
sI762
I14
sI763
I11
sI764
I17
sI765
I12
sI766
I16
sI767
I13
sI768
I10
sI769
I15
sI770
I13
sI771
I16
sI772
I12
sI773
I11
sI774
I16
sI775
I13
sI776
I16
sI777
I12
sI778
I11
sI779
I16
sI780
I14
sI781
I14
sI782
I13
sI783
I12
sI784
I19
sI785
I17
sI786
I14
sI787
I7
sI788
I14
sI789
I9
sI790
I18
sI791
I16
sI792
I10
sI793
I12
sI794
I12
sI795
I22
sI796
I15
sI797
I14
sI798
I19
sI799
I14
sI800
I17
sI801
I11
sI802
I12
sI803
I14
sI804
I12
sI805
I9
sI806
I15
sI807
I11
sI808
I5
sI809
I14
sI810
I9
sI811
I5
sI812
I12
sI813
I11
sI814
I15
sI815
I11
sI816
I12
sI817
I14
sI818
I12
sI819
I11
sI820
I12
sI821
I11
sI822
I16
sI823
I16
sI824
I12
sI825
I10
sI826
I13
sI827
I13
sI828
I15
sI829
I15
sI830
I10
sI831
I14
sI832
I11
sI833
I20
sI834
I17
sI835
I9
sI836
I8
sI837
I12
sI838
I10
sI839
I10
sI840
I7
sI841
I15
sI842
I14
sI843
I13
sI844
I8
sI845
I14
sI846
I14
sI847
I11
sI848
I10
sI849
I7
sI850
I15
sI851
I13
sI852
I16
sI853
I10
sI854
I13
sI855
I15
sI856
I12
sI857
I9
sI858
I10
sI859
I9
sI860
I10
sI861
I13
sI862
I13
sI863
I7
sI864
I12
sI865
I19
sI866
I10
sI867
I8
sI868
I23
sI869
I9
sI870
I7
sI871
I7
sI872
I9
sI873
I7
sI874
I6
sI875
I13
sI876
I15
sI877
I12
sI878
I10
sI879
I8
sI880
I6
sI881
I10
sI882
I10
sI883
I10
sI884
I5
sI885
I8
sI886
I8
sI887
I11
sI888
I12
sI889
I14
sI890
I13
sI891
I9
sI892
I6
sI893
I9
sI894
I6
sI895
I11
sI896
I6
sI897
I10
sI898
I10
sI899
I9
sI900
I7
sI901
I5
sI902
I8
sI903
I5
sI904
I8
sI905
I7
sI906
I10
sI907
I9
sI908
I6
sI909
I7
sI910
I10
sI911
I9
sI912
I9
sI913
I11
sI914
I6
sI915
I9
sI916
I8
sI917
I10
sI918
I7
sI919
I12
sI920
I8
sI921
I11
sI922
I7
sI923
I7
sI924
I6
sI925
I7
sI926
I11
sI927
I4
sI928
I14
sI929
I10
sI930
I8
sI931
I12
sI932
I10
sI933
I12
sI934
I13
sI935
I12
sI936
I9
sI937
I6
sI938
I6
sI939
I10
sI940
I7
sI941
I7
sI942
I10
sI943
I9
sI944
I10
sI945
I4
sI946
I5
sI947
I8
sI948
I11
sI949
I7
sI950
I12
sI951
I10
sI952
I8
sI953
I7
sI954
I10
sI955
I8
sI956
I7
sI957
I6
sI958
I4
sI959
I4
sI960
I7
sI961
I6
sI962
I6
sI963
I6
sI964
I7
sI965
I5
sI966
I8
sI967
I5
sI968
I8
sI969
I10
sI970
I6
sI971
I7
sI972
I8
sI973
I6
sI974
I7
sI975
I6
sI976
I8
sI977
I8
sI978
I6
sI979
I5
sI980
I9
sI981
I4
sI982
I7
sI983
I5
sI984
I6
sI985
I6
sI986
I7
sI987
I7
sI988
I8
sI989
I9
sI990
I9
sI991
I3
sI992
I3
sI993
I6
sI994
I9
sI995
I3
sI996
I4
sI997
I13
sI998
I2
sI999
I5
sI1000
I8
sI1001
I6
sI1002
I5
sI1003
I6
sI1004
I5
sI1005
I5
sI1006
I10
sI1007
I6
sI1008
I7
sI1009
I4
sI1010
I4
sI1011
I5
sI1012
I9
sI1013
I8
sI1014
I7
sI1015
I6
sI1016
I6
sI1017
I6
sI1018
I10
sI1019
I4
sI1020
I9
sI1021
I11
sI1022
I5
sI1023
I5
sI1024
I7
sI1025
I13
sI1026
I2
sI1027
I5
sI1028
I7
sI1029
I2
sI1030
I4
sI1031
I4
sI1032
I9
sI1033
I7
sI1034
I3
sI1035
I4
sI1036
I4
sI1037
I7
sI1038
I4
sI1039
I5
sI1040
I6
sI1041
I6
sI1042
I4
sI1043
I5
sI1044
I10
sI1045
I6
sI1046
I9
sI1047
I5
sI1048
I6
sI1049
I8
sI1050
I2
sI1051
I4
sI1052
I3
sI1053
I4
sI1054
I8
sI1055
I5
sI1056
I10
sI1057
I2
sI1058
I6
sI1059
I4
sI1060
I9
sI1061
I9
sI1062
I7
sI1063
I6
sI1064
I4
sI1065
I5
sI1066
I2
sI1067
I5
sI1068
I8
sI1069
I4
sI1070
I4
sI1071
I5
sI1072
I8
sI1073
I5
sI1074
I6
sI1075
I5
sI1076
I2
sI1077
I11
sI1078
I4
sI1079
I8
sI1080
I6
sI1081
I11
sI1082
I8
sI1083
I7
sI1084
I8
sI1085
I9
sI1086
I4
sI1087
I3
sI1088
I3
sI1089
I8
sI1090
I4
sI1091
I5
sI1092
I5
sI1093
I6
sI1094
I6
sI1095
I5
sI1096
I8
sI1097
I5
sI1098
I3
sI1099
I7
sI1100
I7
sI1101
I4
sI1102
I5
sI1103
I5
sI1104
I9
sI1105
I9
sI1106
I6
sI1107
I5
sI1108
I7
sI1109
I4
sI1110
I8
sI1111
I9
sI1112
I8
sI1113
I7
sI1114
I4
sI1115
I3
sI1116
I6
sI1117
I8
sI1118
I10
sI1119
I9
sI1120
I7
sI1121
I6
sI1122
I9
sI1123
I6
sI1124
I5
sI1125
I11
sI1126
I4
sI1127
I5
sI1128
I8
sI1129
I6
sI1130
I5
sI1131
I3
sI1132
I9
sI1133
I5
sI1134
I7
sI1135
I3
sI1136
I6
sI1137
I4
sI1138
I6
sI1139
I5
sI1140
I7
sI1141
I4
sI1142
I4
sI1143
I3
sI1144
I9
sI1145
I3
sI1146
I3
sI1147
I6
sI1148
I5
sI1149
I6
sI1150
I6
sI1151
I4
sI1152
I3
sI1153
I8
sI1154
I4
sI1155
I3
sI1156
I5
sI1157
I8
sI1158
I7
sI1159
I4
sI1160
I12
sI1161
I5
sI1162
I6
sI1163
I7
sI1164
I2
sI1165
I4
sI1166
I5
sI1167
I6
sI1168
I9
sI1169
I5
sI1170
I7
sI1171
I4
sI1172
I3
sI1173
I8
sI1174
I10
sI1175
I6
sI1176
I10
sI1177
I4
sI1178
I7
sI1179
I8
sI1180
I5
sI1181
I5
sI1182
I9
sI1183
I5
sI1184
I6
sI1185
I7
sI1186
I1
sI1187
I4
sI1188
I5
sI1189
I11
sI1190
I6
sI1191
I4
sI1192
I6
sI1193
I6
sI1194
I6
sI1195
I6
sI1196
I2
sI1197
I3
sI1198
I11
sI1199
I5
sI1200
I6
sI1201
I8
sI1202
I5
sI1203
I3
sI1204
I5
sI1205
I3
sI1206
I5
sI1207
I7
sI1208
I5
sI1209
I8
sI1210
I6
sI1211
I3
sI1212
I3
sI1213
I14
sI1214
I10
sI1215
I3
sI1216
I6
sI1217
I8
sI1218
I5
sI1219
I6
sI1220
I4
sI1221
I5
sI1222
I8
sI1223
I9
sI1224
I3
sI1225
I7
sI1226
I6
sI1227
I5
sI1228
I8
sI1229
I4
sI1230
I3
sI1231
I7
sI1232
I6
sI1233
I7
sI1234
I4
sI1235
I4
sI1236
I5
sI1237
I9
sI1238
I3
sI1239
I4
sI1240
I7
sI1241
I3
sI1242
I6
sI1243
I5
sI1244
I3
sI1245
I7
sI1246
I3
sI1247
I3
sI1248
I5
sI1249
I2
sI1250
I1
sI1251
I5
sI1252
I4
sI1253
I3
sI1254
I2
sI1255
I2
sI1256
I4
sI1257
I6
sI1258
I3
sI1259
I2
sI1260
I4
sI1261
I6
sI1262
I3
sI1263
I2
sI1264
I6
sI1265
I4
sI1266
I3
sI1267
I4
sI1268
I2
sI1269
I6
sI1270
I3
sI1271
I4
sI1272
I2
sI1273
I6
sI1274
I4
sI1275
I4
sI1276
I6
sI1277
I2
sI1278
I9
sI1279
I5
sI1280
I6
sI1281
I5
sI1282
I2
sI1283
I6
sI1284
I2
sI1285
I4
sI1286
I4
sI1287
I3
sI1288
I5
sI1289
I3
sI1290
I6
sI1291
I5
sI1292
I7
sI1293
I6
sI1294
I5
sI1295
I2
sI1296
I3
sI1297
I3
sI1298
I7
sI1299
I3
sI1300
I4
sI1301
I3
sI1302
I5
sI1303
I7
sI1304
I6
sI1305
I5
sI1306
I4
sI1307
I4
sI1308
I7
sI1309
I9
sI1310
I4
sI1311
I2
sI1312
I3
sI1313
I3
sI1314
I2
sI1315
I3
sI1316
I3
sI1317
I5
sI1318
I8
sI1319
I2
sI1320
I3
sI1321
I8
sI1322
I4
sI1323
I6
sI1324
I6
sI1325
I2
sI1326
I6
sI1327
I4
sI1328
I3
sI1329
I2
sI1330
I5
sI1331
I2
sI1332
I2
sI1333
I4
sI1334
I7
sI1335
I7
sI1336
I5
sI1337
I2
sI1338
I4
sI1339
I2
sI1340
I4
sI1341
I3
sI1342
I2
sI1343
I4
sI1344
I3
sI1345
I6
sI1346
I3
sI1347
I3
sI1348
I4
sI1349
I5
sI1350
I4
sI1351
I4
sI1352
I6
sI1353
I4
sI1354
I3
sI1355
I8
sI1356
I2
sI1357
I3
sI1358
I5
sI1359
I1
sI1360
I4
sI1361
I4
sI1362
I2
sI1363
I5
sI1364
I5
sI1365
I5
sI1366
I6
sI1367
I5
sI1368
I1
sI1369
I5
sI1370
I7
sI1371
I3
sI1372
I4
sI1373
I5
sI1374
I6
sI1375
I1
sI1376
I3
sI1377
I10
sI1378
I5
sI1379
I7
sI1380
I4
sI1381
I7
sI1382
I4
sI1383
I5
sI1384
I6
sI1385
I4
sI1386
I10
sI1387
I4
sI1388
I4
sI1389
I3
sI1390
I6
sI1391
I5
sI1392
I7
sI1394
I3
sI1395
I4
sI1396
I3
sI1397
I4
sI1398
I1
sI1399
I4
sI1400
I8
sI1401
I3
sI1402
I3
sI1403
I2
sI1404
I3
sI1405
I2
sI1406
I4
sI1407
I2
sI1408
I4
sI1409
I5
sI1410
I1
sI1411
I4
sI1412
I4
sI1413
I2
sI1414
I5
sI1415
I3
sI1416
I2
sI1417
I2
sI1418
I7
sI1419
I7
sI1420
I4
sI1421
I4
sI1422
I9
sI1423
I4
sI1424
I8
sI1425
I4
sI1426
I7
sI1427
I4
sI1428
I4
sI1429
I3
sI1430
I4
sI1431
I6
sI1432
I4
sI1433
I2
sI1434
I6
sI1435
I4
sI1436
I9
sI1437
I4
sI1438
I3
sI1439
I7
sI1440
I3
sI1441
I5
sI1442
I2
sI1443
I4
sI1444
I6
sI1445
I6
sI1446
I3
sI1447
I2
sI1448
I2
sI1449
I4
sI1450
I6
sI1451
I9
sI1452
I2
sI1453
I5
sI1454
I2
sI1455
I2
sI1456
I6
sI1457
I3
sI1458
I3
sI1459
I8
sI1460
I7
sI1461
I4
sI1462
I7
sI1463
I7
sI1464
I5
sI1465
I5
sI1466
I3
sI1467
I5
sI1468
I6
sI1469
I4
sI1470
I4
sI1471
I7
sI1472
I4
sI1473
I5
sI1474
I3
sI1475
I2
sI1476
I4
sI1477
I2
sI1478
I3
sI1479
I4
sI1480
I6
sI1481
I2
sI1482
I4
sI1483
I4
sI1484
I6
sI1485
I5
sI1486
I4
sI1487
I2
sI1488
I4
sI1489
I4
sI1490
I1
sI1491
I2
sI1492
I5
sI1493
I5
sI1494
I5
sI1495
I3
sI1496
I3
sI1497
I2
sI1498
I3
sI1499
I3
sI1500
I6
sI1501
I3
sI1502
I7
sI1503
I9
sI1504
I4
sI1505
I4
sI1506
I4
sI1507
I6
sI1508
I5
sI1509
I3
sI1510
I2
sI1511
I4
sI1512
I5
sI1513
I4
sI1514
I5
sI1515
I2
sI1516
I2
sI1517
I14
sI1518
I7
sI1519
I3
sI1520
I3
sI1521
I10
sI1522
I2
sI1523
I1
sI1524
I2
sI1525
I4
sI1526
I6
sI1527
I3
sI1528
I5
sI1529
I3
sI1530
I5
sI1531
I6
sI1532
I1
sI1533
I3
sI1534
I4
sI1535
I2
sI1536
I7
sI1537
I4
sI1538
I7
sI1539
I6
sI1540
I5
sI1541
I4
sI1542
I3
sI1543
I1
sI1544
I5
sI1545
I6
sI1546
I4
sI1547
I5
sI1548
I4
sI1549
I6
sI1550
I7
sI1551
I2
sI1552
I3
sI1553
I5
sI1554
I3
sI1555
I5
sI1556
I4
sI1557
I5
sI1558
I5
sI1559
I3
sI1560
I3
sI1561
I6
sI1562
I4
sI1563
I7
sI1564
I6
sI1565
I3
sI1566
I2
sI1567
I5
sI1568
I6
sI1569
I10
sI1570
I8
sI1571
I2
sI1572
I3
sI1573
I5
sI1574
I5
sI1575
I7
sI1576
I2
sI1577
I5
sI1578
I9
sI1579
I5
sI1580
I6
sI1581
I3
sI1582
I4
sI1583
I1
sI1584
I8
sI1585
I2
sI1586
I1
sI1587
I1
sI1588
I3
sI1589
I4
sI1590
I2
sI1591
I5
sI1592
I2
sI1593
I1
sI1594
I10
sI1595
I4
sI1596
I7
sI1597
I3
sI1598
I2
sI1599
I5
sI1600
I6
sI1601
I2
sI1602
I5
sI1603
I4
sI1604
I7
sI1605
I8
sI1606
I5
sI1607
I2
sI1608
I6
sI1609
I5
sI1610
I5
sI1611
I4
sI1612
I7
sI1613
I2
sI1614
I5
sI1615
I2
sI1616
I4
sI1617
I3
sI1618
I3
sI1619
I4
sI1620
I4
sI1621
I5
sI1622
I4
sI1623
I4
sI1624
I5
sI1625
I2
sI1626
I6
sI1627
I7
sI1628
I4
sI1629
I2
sI1630
I6
sI1631
I6
sI1632
I4
sI1633
I4
sI1634
I6
sI1635
I7
sI1636
I1
sI1637
I5
sI1638
I4
sI1639
I7
sI1640
I1
sI1641
I7
sI1642
I3
sI1643
I3
sI1644
I3
sI1645
I6
sI1646
I3
sI1647
I5
sI1648
I6
sI1649
I3
sI1650
I6
sI1651
I3
sI1652
I12
sI1653
I4
sI1654
I7
sI1655
I7
sI1656
I3
sI1657
I3
sI1658
I1
sI1659
I7
sI1660
I4
sI1661
I3
sI1662
I2
sI1663
I3
sI1664
I6
sI1665
I2
sI1666
I2
sI1667
I8
sI1668
I8
sI1669
I9
sI1670
I6
sI1671
I4
sI1672
I8
sI1673
I3
sI1674
I4
sI1675
I3
sI1676
I2
sI1677
I3
sI1678
I8
sI1679
I3
sI1680
I3
sI1681
I5
sI1682
I4
sI1683
I4
sI1684
I3
sI1685
I8
sI1686
I6
sI1687
I4
sI1688
I3
sI1689
I6
sI1690
I5
sI1691
I5
sI1692
I4
sI1693
I6
sI1694
I3
sI1695
I5
sI1696
I4
sI1697
I5
sI1698
I1
sI1699
I3
sI1700
I2
sI1701
I3
sI1702
I3
sI1703
I5
sI1704
I3
sI1705
I8
sI1706
I4
sI1707
I10
sI1708
I5
sI1709
I4
sI1710
I1
sI1711
I7
sI1712
I5
sI1713
I2
sI1714
I5
sI1715
I6
sI1716
I3
sI1717
I4
sI1718
I5
sI1719
I4
sI1721
I6
sI1722
I6
sI1723
I4
sI1724
I4
sI1725
I6
sI1726
I4
sI1727
I7
sI1728
I5
sI1729
I5
sI1730
I3
sI1731
I3
sI1732
I4
sI1733
I4
sI1734
I5
sI1735
I8
sI1736
I5
sI1737
I5
sI1738
I3
sI1739
I5
sI1740
I6
sI1741
I3
sI1742
I5
sI1743
I2
sI1744
I4
sI1745
I2
sI1746
I4
sI1747
I3
sI1748
I6
sI1749
I5
sI1750
I5
sI1751
I6
sI1752
I5
sI1753
I15
sI1754
I1
sI1755
I5
sI1756
I4
sI1757
I7
sI1758
I1
sI1759
I4
sI1760
I2
sI1761
I3
sI1762
I6
sI1763
I5
sI1764
I5
sI1765
I3
sI1766
I1
sI1767
I5
sI1768
I1
sI1769
I6
sI1770
I8
sI1771
I2
sI1772
I2
sI1773
I4
sI1774
I9
sI1775
I2
sI1776
I1
sI1777
I6
sI1778
I3
sI1779
I2
sI1780
I1
sI1781
I3
sI1782
I2
sI1783
I2
sI1785
I2
sI1786
I4
sI1788
I2
sI1789
I3
sI1790
I2
sI1791
I2
sI1792
I3
sI1793
I2
sI1794
I5
sI1795
I2
sI1796
I4
sI1797
I6
sI1799
I4
sI1800
I1
sI1801
I4
sI1802
I8
sI1803
I2
sI1804
I2
sI1805
I1
sI1807
I2
sI1808
I2
sI1809
I8
sI1810
I4
sI1811
I3
sI1812
I1
sI1813
I3
sI1814
I2
sI1816
I2
sI1817
I1
sI1818
I2
sI1819
I4
sI1820
I1
sI1821
I6
sI1822
I2
sI1823
I2
sI1824
I1
sI1825
I1
sI1826
I2
sI1827
I3
sI1828
I2
sI1829
I7
sI1830
I2
sI1831
I2
sI1832
I1
sI1833
I9
sI1834
I3
sI1836
I2
sI1837
I3
sI1838
I4
sI1839
I2
sI1840
I4
sI1841
I1
sI1842
I1
sI1843
I4
sI1844
I1
sI1845
I3
sI1846
I4
sI1847
I3
sI1848
I2
sI1849
I5
sI1850
I3
sI1851
I3
sI1852
I4
sI1853
I1
sI1854
I2
sI1855
I2
sI1856
I2
sI1857
I2
sI1858
I3
sI1859
I2
sI1860
I4
sI1863
I7
sI1864
I4
sI1865
I2
sI1866
I2
sI1867
I1
sI1868
I4
sI1869
I2
sI1870
I11
sI1871
I5
sI1872
I1
sI1873
I3
sI1874
I6
sI1875
I2
sI1876
I4
sI1877
I4
sI1878
I1
sI1879
I10
sI1880
I3
sI1881
I4
sI1882
I1
sI1883
I6
sI1884
I1
sI1885
I1
sI1886
I2
sI1887
I1
sI1888
I4
sI1889
I2
sI1890
I5
sI1891
I1
sI1892
I3
sI1893
I6
sI1894
I4
sI1895
I3
sI1896
I2
sI1897
I4
sI1898
I5
sI1899
I4
sI1900
I3
sI1901
I7
sI1903
I2
sI1904
I9
sI1905
I2
sI1906
I1
sI1907
I7
sI1908
I3
sI1909
I2
sI1910
I3
sI1911
I3
sI1912
I2
sI1913
I2
sI1914
I2
sI1915
I2
sI1916
I2
sI1917
I2
sI1918
I2
sI1919
I2
sI1920
I1
sI1921
I4
sI1922
I4
sI1923
I2
sI1924
I3
sI1925
I5
sI1926
I2
sI1927
I3
sI1928
I2
sI1929
I4
sI1930
I2
sI1931
I5
sI1932
I10
sI1933
I2
sI1934
I3
sI1935
I2
sI1936
I7
sI1937
I4
sI1938
I2
sI1939
I9
sI1940
I1
sI1941
I3
sI1942
I2
sI1943
I2
sI1944
I2
sI1945
I2
sI1946
I1
sI1947
I3
sI1948
I2
sI1949
I4
sI1950
I4
sI1951
I4
sI1953
I3
sI1954
I5
sI1955
I2
sI1956
I1
sI1957
I4
sI1958
I3
sI1959
I8
sI1960
I1
sI1961
I4
sI1962
I6
sI1963
I2
sI1964
I2
sI1965
I3
sI1966
I3
sI1967
I3
sI1968
I4
sI1969
I4
sI1970
I5
sI1971
I3
sI1972
I2
sI1973
I1
sI1974
I1
sI1975
I6
sI1976
I2
sI1977
I1
sI1978
I4
sI1980
I4
sI1981
I2
sI1982
I5
sI1983
I3
sI1984
I4
sI1985
I3
sI1986
I4
sI1987
I4
sI1988
I4
sI1989
I2
sI1991
I2
sI1992
I2
sI1993
I1
sI1994
I1
sI1995
I1
sI1996
I4
sI1997
I5
sI1998
I3
sI1999
I3
sI2000
I4
sI2002
I4
sI2003
I2
sI2004
I2
sI2005
I7
sI2006
I2
sI2007
I2
sI2009
I3
sI2010
I3
sI2011
I3
sI2012
I2
sI2013
I2
sI2014
I2
sI2015
I5
sI2016
I1
sI2017
I4
sI2018
I4
sI2019
I4
sI2020
I2
sI2021
I2
sI2022
I4
sI2023
I5
sI2025
I2
sI2026
I4
sI2027
I1
sI2029
I3
sI2030
I2
sI2031
I2
sI2032
I2
sI2033
I4
sI2034
I4
sI2035
I3
sI2036
I3
sI2037
I8
sI2038
I2
sI2039
I3
sI2040
I7
sI2041
I7
sI2042
I3
sI2043
I4
sI2044
I3
sI2045
I3
sI2046
I3
sI2047
I2
sI2048
I3
sI2049
I6
sI2050
I6
sI2051
I3
sI2052
I2
sI2053
I6
sI2054
I4
sI2056
I5
sI2057
I1
sI2058
I4
sI2059
I2
sI2060
I4
sI2061
I1
sI2062
I2
sI2063
I4
sI2064
I2
sI2065
I2
sI2066
I2
sI2068
I4
sI2069
I6
sI2070
I1
sI2071
I2
sI2072
I3
sI2074
I1
sI2075
I4
sI2076
I1
sI2077
I3
sI2078
I3
sI2079
I3
sI2080
I5
sI2081
I2
sI2082
I1
sI2083
I3
sI2084
I8
sI2085
I1
sI2086
I1
sI2087
I5
sI2088
I3
sI2089
I3
sI2090
I1
sI2091
I2
sI2092
I3
sI2093
I4
sI2094
I1
sI2095
I2
sI2096
I3
sI2097
I1
sI2098
I4
sI2099
I1
sI2100
I2
sI2101
I1
sI2102
I1
sI2104
I5
sI2105
I3
sI2106
I3
sI2108
I1
sI2109
I2
sI2110
I1
sI2111
I2
sI2112
I2
sI2113
I2
sI2114
I1
sI2115
I1
sI2117
I2
sI2118
I1
sI2119
I1
sI2120
I3
sI2121
I3
sI2122
I2
sI2123
I1
sI2124
I2
sI2126
I2
sI2128
I1
sI2129
I1
sI2130
I1
sI2132
I2
sI2133
I1
sI2135
I2
sI2136
I1
sI2137
I3
sI2138
I1
sI2139
I2
sI2141
I1
sI2142
I1
sI2143
I1
sI2144
I1
sI2145
I1
sI2147
I3
sI2149
I1
sI2153
I1
sI2154
I1
sI2156
I1
sI2157
I1
sI2158
I4
sI2159
I1
sI2160
I5
sI2161
I1
sI2162
I1
sI2163
I1
sI2164
I1
sI2165
I2
sI2166
I1
sI2167
I1
sI2168
I2
sI2169
I2
sI2170
I2
sI2172
I2
sI2173
I1
sI2174
I2
sI2175
I2
sI2176
I3
sI2177
I2
sI2178
I1
sI2181
I2
sI2183
I5
sI2184
I1
sI2185
I1
sI2186
I1
sI2187
I2
sI2188
I2
sI2190
I1
sI2191
I3
sI2194
I3
sI2195
I1
sI2196
I1
sI2198
I1
sI2199
I3
sI2200
I1
sI2201
I2
sI2202
I1
sI2204
I1
sI2205
I3
sI2206
I5
sI2207
I2
sI2208
I2
sI2210
I2
ssg13
g0
(g7
tp23
Rp24
I0
I1028
sI1
I3925
sI2
I6098
sI3
I6992
sI4
I7282
sI5
I6261
sI6
I5826
sI7
I4517
sI8
I3819
sI9
I2890
sI10
I2375
sI11
I1752
sI12
I1524
sI13
I1015
sI14
I759
sI15
I652
sI16
I497
sI17
I428
sI18
I323
sI19
I255
sI20
I238
sI21
I161
sI22
I165
sI23
I143
sI24
I140
sI25
I167
sI26
I146
sI27
I125
sI28
I99
sI29
I114
sI30
I87
sI31
I94
sI32
I94
sI33
I100
sI34
I97
sI35
I96
sI36
I100
sI37
I88
sI38
I80
sI39
I90
sI40
I91
sI41
I99
sI42
I103
sI43
I83
sI44
I76
sI45
I72
sI46
I77
sI47
I63
sI48
I63
sI49
I79
sI50
I69
sI51
I66
sI52
I81
sI53
I79
sI54
I71
sI55
I64
sI56
I62
sI57
I53
sI58
I70
sI59
I73
sI60
I59
sI61
I67
sI62
I64
sI63
I63
sI64
I49
sI65
I47
sI66
I61
sI67
I54
sI68
I44
sI69
I53
sI70
I61
sI71
I43
sI72
I43
sI73
I41
sI74
I42
sI75
I39
sI76
I42
sI77
I53
sI78
I40
sI79
I44
sI80
I32
sI81
I44
sI82
I42
sI83
I53
sI84
I40
sI85
I36
sI86
I41
sI87
I39
sI88
I32
sI89
I49
sI90
I38
sI91
I28
sI92
I39
sI93
I26
sI94
I27
sI95
I41
sI96
I35
sI97
I31
sI98
I38
sI99
I31
sI100
I31
sI101
I29
sI102
I35
sI103
I32
sI104
I28
sI105
I28
sI106
I37
sI107
I34
sI108
I35
sI109
I25
sI110
I28
sI111
I30
sI112
I27
sI113
I19
sI114
I28
sI115
I23
sI116
I29
sI117
I32
sI118
I30
sI119
I34
sI120
I21
sI121
I23
sI122
I30
sI123
I18
sI124
I23
sI125
I23
sI126
I24
sI127
I28
sI128
I22
sI129
I22
sI130
I18
sI131
I21
sI132
I27
sI133
I18
sI134
I17
sI135
I23
sI136
I21
sI137
I19
sI138
I19
sI139
I32
sI140
I22
sI141
I24
sI142
I17
sI143
I19
sI144
I27
sI145
I22
sI146
I21
sI147
I17
sI148
I22
sI149
I18
sI150
I17
sI151
I21
sI152
I24
sI153
I18
sI154
I27
sI155
I9
sI156
I10
sI157
I17
sI158
I10
sI159
I13
sI160
I16
sI161
I19
sI162
I17
sI163
I15
sI164
I12
sI165
I10
sI166
I16
sI167
I19
sI168
I20
sI169
I12
sI170
I19
sI171
I19
sI172
I16
sI173
I11
sI174
I14
sI175
I15
sI176
I21
sI177
I12
sI178
I17
sI179
I14
sI180
I10
sI181
I11
sI182
I12
sI183
I18
sI184
I10
sI185
I13
sI186
I15
sI187
I15
sI188
I10
sI189
I12
sI190
I16
sI191
I10
sI192
I9
sI193
I13
sI194
I8
sI195
I13
sI196
I12
sI197
I15
sI198
I13
sI199
I13
sI200
I12
sI201
I7
sI202
I11
sI203
I18
sI204
I10
sI205
I13
sI206
I12
sI207
I7
sI208
I7
sI209
I10
sI210
I8
sI211
I12
sI212
I22
sI213
I20
sI214
I15
sI215
I15
sI216
I9
sI217
I17
sI218
I11
sI219
I15
sI220
I9
sI221
I6
sI222
I5
sI223
I21
sI224
I9
sI225
I9
sI226
I11
sI227
I9
sI228
I7
sI229
I5
sI230
I9
sI231
I7
sI232
I11
sI233
I6
sI234
I9
sI235
I8
sI236
I12
sI237
I8
sI238
I7
sI239
I8
sI240
I13
sI241
I4
sI242
I3
sI243
I10
sI244
I7
sI245
I9
sI246
I9
sI247
I9
sI248
I11
sI249
I15
sI250
I7
sI251
I15
sI252
I11
sI253
I10
sI254
I6
sI255
I9
sI256
I6
sI257
I11
sI258
I5
sI259
I11
sI260
I11
sI261
I3
sI262
I7
sI263
I5
sI264
I9
sI265
I10
sI266
I6
sI267
I8
sI268
I12
sI269
I9
sI270
I5
sI271
I8
sI272
I8
sI273
I8
sI274
I13
sI275
I9
sI276
I4
sI277
I8
sI278
I10
sI279
I8
sI280
I4
sI281
I8
sI282
I6
sI283
I12
sI284
I10
sI285
I3
sI286
I8
sI287
I9
sI288
I11
sI289
I10
sI290
I6
sI291
I8
sI292
I12
sI293
I4
sI294
I9
sI295
I7
sI296
I9
sI297
I9
sI298
I11
sI299
I9
sI300
I6
sI301
I7
sI302
I8
sI303
I7
sI304
I5
sI305
I10
sI306
I4
sI307
I6
sI308
I10
sI309
I8
sI310
I6
sI311
I2
sI312
I3
sI313
I5
sI314
I7
sI315
I10
sI316
I9
sI317
I13
sI318
I5
sI319
I9
sI320
I4
sI321
I3
sI322
I6
sI323
I8
sI324
I3
sI325
I4
sI326
I9
sI327
I5
sI328
I7
sI329
I1
sI330
I3
sI331
I9
sI332
I6
sI333
I6
sI334
I5
sI335
I2
sI336
I3
sI337
I5
sI338
I6
sI339
I5
sI340
I5
sI341
I3
sI342
I5
sI343
I3
sI344
I4
sI345
I1
sI346
I6
sI347
I8
sI348
I6
sI349
I5
sI350
I4
sI351
I4
sI352
I5
sI353
I3
sI354
I2
sI355
I4
sI356
I5
sI357
I2
sI358
I7
sI359
I8
sI360
I1
sI361
I4
sI362
I4
sI363
I11
sI364
I7
sI365
I5
sI366
I5
sI367
I5
sI368
I8
sI369
I6
sI370
I3
sI371
I1
sI372
I1
sI373
I2
sI374
I6
sI375
I3
sI376
I8
sI377
I1
sI378
I3
sI379
I3
sI380
I4
sI381
I3
sI382
I3
sI383
I4
sI384
I2
sI385
I5
sI386
I4
sI387
I4
sI388
I4
sI389
I1
sI390
I7
sI391
I3
sI392
I10
sI393
I4
sI394
I4
sI395
I7
sI396
I7
sI397
I5
sI398
I1
sI399
I5
sI400
I4
sI401
I3
sI402
I6
sI403
I7
sI404
I2
sI405
I1
sI406
I9
sI407
I6
sI408
I9
sI409
I5
sI410
I4
sI411
I7
sI412
I4
sI413
I5
sI414
I5
sI415
I4
sI416
I5
sI417
I9
sI418
I12
sI419
I8
sI420
I9
sI421
I2
sI422
I6
sI423
I6
sI424
I8
sI425
I5
sI426
I13
sI427
I9
sI428
I13
sI429
I13
sI430
I13
sI431
I8
sI432
I7
sI433
I7
sI434
I9
sI435
I14
sI436
I17
sI437
I7
sI438
I10
sI439
I12
sI440
I9
sI441
I13
sI442
I10
sI443
I14
sI444
I12
sI445
I12
sI446
I21
sI447
I14
sI448
I14
sI449
I23
sI450
I20
sI451
I27
sI452
I15
sI453
I23
sI454
I28
sI455
I23
sI456
I30
sI457
I19
sI458
I31
sI459
I25
sI460
I38
sI461
I37
sI462
I28
sI463
I35
sI464
I37
sI465
I45
sI466
I29
sI467
I24
sI468
I33
sI469
I38
sI470
I36
sI471
I33
sI472
I28
sI473
I41
sI474
I47
sI475
I36
sI476
I29
sI477
I37
sI478
I30
sI479
I43
sI480
I32
sI481
I41
sI482
I38
sI483
I46
sI484
I40
sI485
I31
sI486
I36
sI487
I42
sI488
I47
sI489
I39
sI490
I48
sI491
I47
sI492
I49
sI493
I33
sI494
I43
sI495
I47
sI496
I41
sI497
I51
sI498
I53
sI499
I38
sI500
I50
sI501
I35
sI502
I44
sI503
I45
sI504
I34
sI505
I33
sI506
I49
sI507
I52
sI508
I39
sI509
I46
sI510
I50
sI511
I36
sI512
I40
sI513
I45
sI514
I51
sI515
I34
sI516
I37
sI517
I33
sI518
I48
sI519
I45
sI520
I37
sI521
I35
sI522
I41
sI523
I41
sI524
I45
sI525
I41
sI526
I37
sI527
I36
sI528
I31
sI529
I35
sI530
I32
sI531
I24
sI532
I32
sI533
I45
sI534
I35
sI535
I30
sI536
I34
sI537
I24
sI538
I24
sI539
I33
sI540
I30
sI541
I28
sI542
I22
sI543
I29
sI544
I26
sI545
I38
sI546
I39
sI547
I32
sI548
I21
sI549
I17
sI550
I23
sI551
I15
sI552
I25
sI553
I15
sI554
I21
sI555
I29
sI556
I13
sI557
I15
sI558
I14
sI559
I10
sI560
I14
sI561
I13
sI562
I11
sI563
I16
sI564
I11
sI565
I22
sI566
I24
sI567
I12
sI568
I17
sI569
I18
sI570
I24
sI571
I11
sI572
I21
sI573
I17
sI574
I15
sI575
I12
sI576
I11
sI577
I15
sI578
I15
sI579
I13
sI580
I9
sI581
I8
sI582
I15
sI583
I17
sI584
I8
sI585
I13
sI586
I8
sI587
I11
sI588
I9
sI589
I11
sI590
I8
sI591
I9
sI592
I4
sI593
I11
sI594
I8
sI595
I5
sI596
I4
sI597
I6
sI598
I5
sI599
I8
sI600
I8
sI601
I5
sI602
I1
sI603
I2
sI604
I6
sI605
I5
sI606
I5
sI607
I2
sI608
I3
sI609
I3
sI610
I3
sI611
I6
sI612
I3
sI613
I7
sI614
I1
sI615
I1
sI616
I1
sI617
I2
sI618
I2
sI619
I1
sI620
I2
sI622
I1
sI623
I3
sI625
I3
sI626
I2
sI627
I1
sI628
I2
sI629
I2
sI631
I1
sI632
I1
sI633
I3
sI635
I1
sI636
I2
sI638
I1
sI642
I1
sI643
I4
sI646
I1
sI648
I3
sI649
I1
sI653
I1
sI658
I1
sI659
I1
sI660
I1
sI664
I1
sI670
I1
sI678
I1
sI695
I1
sI700
I1
sI706
I1
sI716
I1
ssg16
I255
ssS'LFU'
p25
(dp26
g6
g0
(g7
tp27
Rp28
sg10
g0
(g7
tp29
Rp30
I1
I10458
sI2
I5403
sI3
I3675
sI4
I2837
sI5
I2281
sI6
I1874
sI7
I1561
sI8
I1346
sI9
I1186
sI10
I1025
sI11
I916
sI12
I814
sI13
I737
sI14
I645
sI15
I584
sI16
I526
sI17
I479
sI18
I446
sI19
I410
sI20
I367
sI21
I336
sI22
I306
sI23
I277
sI24
I256
sI25
I230
sI26
I203
sI27
I166
sI28
I152
sI29
I128
sI30
I108
sI31
I87
sI32
I74
sI33
I55
sI34
I46
sI35
I36
sI36
I31
sI37
I20
sI38
I6
ssg13
g0
(g7
tp31
Rp32
I0
I19889
sI1
I10484
sI2
I4003
sI3
I1670
sI4
I754
sI5
I352
sI6
I131
sI7
I66
sI8
I31
sI9
I16
sI10
I6
sI11
I3
sI12
I6
sI13
I3
sI14
I3
sI15
I4
sI16
I7
sI17
I6
sI18
I6
sI19
I1
sI20
I2
sI21
I2
sI22
I4
sI23
I1
sI24
I5
sI25
I6
sI26
I1
sI27
I1
sI28
I11
sI29
I5
sI30
I11
sI31
I4
sI32
I3
sI33
I2
sI34
I5
sI35
I6
sI36
I2
sI37
I1
sI38
I2
sI39
I3
sI40
I7
sI41
I2
sI42
I2
sI43
I2
sI44
I3
sI45
I2
sI46
I2
sI47
I6
sI48
I3
sI49
I8
sI50
I9
sI51
I7
sI52
I1
sI53
I6
sI54
I2
sI55
I1
sI56
I5
sI57
I3
sI58
I2
sI59
I4
sI60
I2
sI61
I4
sI62
I3
sI63
I1
sI64
I2
sI67
I1
sI68
I2
sI69
I3
sI70
I2
sI71
I1
sI72
I2
sI73
I1
sI77
I1
sI78
I4
sI79
I1
sI80
I3
sI81
I3
sI82
I6
sI83
I8
sI84
I2
sI85
I7
sI86
I5
sI87
I7
sI88
I6
sI89
I8
sI90
I4
sI91
I7
sI92
I7
sI93
I2
sI94
I2
sI96
I2
sI98
I2
sI99
I4
sI100
I3
sI101
I3
sI102
I4
sI103
I3
sI104
I4
sI105
I15
sI106
I7
sI107
I5
sI108
I3
sI109
I13
sI110
I5
sI111
I4
sI112
I5
sI113
I3
sI114
I7
sI115
I3
sI116
I5
sI117
I5
sI118
I6
sI119
I11
sI120
I1
sI121
I1
sI122
I1
sI123
I4
sI124
I6
sI125
I3
sI126
I3
sI127
I7
sI128
I7
sI129
I8
sI130
I4
sI131
I6
sI132
I5
sI133
I4
sI134
I3
sI135
I1
sI136
I4
sI137
I2
sI138
I2
sI139
I4
sI140
I2
sI141
I1
sI142
I6
sI143
I6
sI145
I3
sI146
I2
sI147
I4
sI148
I4
sI149
I4
sI150
I7
sI151
I1
sI152
I4
sI153
I3
sI154
I3
sI155
I2
sI158
I5
sI160
I1
sI161
I4
sI162
I5
sI163
I4
sI164
I3
sI167
I1
sI168
I1
sI169
I3
sI170
I1
sI171
I2
sI172
I3
sI173
I2
sI174
I2
sI175
I5
sI176
I5
sI177
I5
sI178
I4
sI179
I8
sI180
I5
sI181
I3
sI182
I2
sI183
I1
sI184
I3
sI185
I3
sI186
I4
sI187
I8
sI188
I1
sI189
I6
sI190
I3
sI192
I1
sI193
I7
sI194
I2
sI195
I3
sI196
I2
sI197
I3
sI199
I1
sI200
I2
sI201
I1
sI202
I4
sI203
I7
sI204
I9
sI205
I3
sI206
I7
sI207
I1
sI208
I1
sI209
I2
sI210
I4
sI211
I8
sI212
I1
sI213
I11
sI214
I1
sI215
I6
sI216
I7
sI217
I8
sI218
I1
sI219
I8
sI220
I7
sI221
I2
sI222
I3
sI223
I2
sI224
I3
sI225
I4
sI226
I11
sI227
I5
sI228
I9
sI229
I2
sI230
I4
sI231
I1
sI232
I1
sI233
I5
sI235
I3
sI236
I6
sI237
I3
sI238
I6
sI239
I2
sI240
I2
sI241
I2
sI242
I7
sI243
I1
sI244
I4
sI245
I12
sI246
I3
sI247
I2
sI248
I4
sI249
I5
sI251
I2
sI252
I5
sI253
I6
sI254
I2
sI255
I4
sI256
I8
sI257
I19
sI258
I16
sI259
I9
sI260
I7
sI261
I8
sI262
I2
sI263
I4
sI264
I2
sI265
I1
sI266
I6
sI267
I4
sI268
I6
sI269
I1
sI270
I1
sI271
I3
sI272
I3
sI273
I11
sI274
I2
sI275
I7
sI276
I7
sI277
I13
sI278
I2
sI279
I4
sI280
I1
sI281
I1
sI282
I1
sI284
I1
sI287
I3
sI288
I4
sI289
I7
sI290
I3
sI291
I6
sI292
I3
sI293
I1
sI294
I2
sI295
I1
sI296
I1
sI297
I4
sI298
I4
sI300
I2
sI301
I4
sI302
I1
sI303
I6
sI304
I4
sI305
I3
sI306
I3
sI307
I1
sI308
I2
sI309
I2
sI310
I1
sI311
I3
sI312
I1
sI313
I1
sI314
I5
sI315
I3
sI316
I5
sI317
I3
sI318
I4
sI319
I5
sI320
I3
sI321
I7
sI322
I8
sI326
I2
sI327
I1
sI328
I1
sI329
I4
sI330
I2
sI331
I4
sI332
I2
sI333
I3
sI334
I3
sI335
I7
sI336
I4
sI337
I4
sI339
I7
sI340
I2
sI341
I2
sI342
I1
sI343
I3
sI344
I1
sI345
I6
sI346
I6
sI347
I2
sI348
I5
sI349
I4
sI350
I5
sI351
I4
sI352
I3
sI353
I2
sI354
I2
sI355
I5
sI356
I10
sI357
I9
sI358
I1
sI359
I3
sI360
I1
sI361
I7
sI362
I1
sI363
I2
sI365
I5
sI366
I1
sI367
I3
sI368
I7
sI369
I3
sI371
I1
sI372
I2
sI373
I1
sI374
I1
sI375
I2
sI379
I1
sI380
I1
sI381
I2
sI383
I2
sI384
I1
sI385
I2
sI387
I1
sI388
I3
sI389
I3
sI390
I1
sI391
I2
sI392
I1
sI393
I1
sI394
I2
sI395
I1
sI396
I2
sI397
I2
sI399
I1
sI400
I1
sI402
I2
sI403
I3
sI404
I1
sI405
I1
sI410
I2
sI415
I2
sI416
I1
sI417
I1
sI419
I2
sI421
I1
sI422
I1
sI423
I1
sI424
I2
sI425
I3
sI426
I2
sI428
I1
sI429
I1
sI430
I1
sI438
I2
sI439
I2
sI440
I1
sI442
I1
sI443
I1
sI444
I1
sI445
I1
sI446
I1
sI448
I1
sI449
I1
sI450
I1
sI451
I1
sI452
I2
sI453
I3
sI454
I2
sI455
I1
sI456
I1
sI459
I3
sI461
I2
sI462
I2
sI465
I1
sI467
I1
sI468
I1
sI469
I1
sI470
I3
sI471
I1
sI474
I1
sI475
I1
sI476
I1
sI477
I1
sI481
I1
sI482
I1
sI483
I2
sI484
I3
sI485
I1
sI486
I2
sI488
I2
sI490
I1
sI492
I1
sI493
I2
sI494
I1
sI496
I1
sI498
I2
sI499
I1
sI500
I1
sI501
I4
sI502
I3
sI503
I1
sI504
I2
sI505
I3
sI507
I1
sI509
I2
sI510
I3
sI511
I3
sI512
I1
sI513
I1
sI514
I1
sI516
I3
sI517
I1
sI518
I1
sI519
I2
sI520
I2
sI521
I1
sI523
I2
sI526
I1
sI527
I1
sI530
I2
sI532
I2
sI534
I1
sI535
I4
sI536
I1
sI537
I2
sI538
I2
sI539
I1
sI540
I2
sI541
I1
sI544
I2
sI545
I1
sI546
I1
sI547
I2
sI548
I2
sI549
I2
sI550
I3
sI551
I2
sI552
I1
sI553
I2
sI554
I1
sI556
I4
sI558
I1
sI559
I1
sI560
I3
sI561
I4
sI562
I2
sI563
I1
sI564
I1
sI565
I1
sI567
I2
sI568
I2
sI569
I1
sI570
I1
sI571
I3
sI572
I1
sI573
I1
sI574
I2
sI575
I1
sI576
I2
sI578
I1
sI579
I3
sI580
I1
sI582
I3
sI583
I1
sI585
I2
sI588
I4
sI591
I5
sI593
I4
sI594
I2
sI597
I4
sI598
I2
sI599
I5
sI600
I6
sI601
I4
sI602
I1
sI603
I4
sI605
I3
sI606
I2
sI607
I1
sI609
I1
sI612
I1
sI8805
I1
sI615
I2
sI616
I1
sI621
I1
sI623
I1
sI624
I2
sI625
I2
sI626
I1
sI627
I1
sI629
I2
sI630
I1
sI631
I1
sI632
I1
sI633
I1
sI635
I1
sI636
I2
sI638
I3
sI640
I2
sI641
I1
sI642
I2
sI643
I2
sI644
I1
sI647
I3
sI649
I2
sI650
I1
sI651
I2
sI652
I2
sI656
I2
sI657
I3
sI660
I1
sI661
I1
sI662
I1
sI663
I1
sI664
I1
sI665
I1
sI667
I1
sI668
I1
sI670
I3
sI671
I1
sI673
I1
sI675
I1
sI676
I1
sI677
I1
sI678
I2
sI679
I1
sI680
I1
sI681
I2
sI682
I2
sI683
I4
sI684
I2
sI685
I1
sI686
I4
sI687
I3
sI688
I5
sI689
I2
sI690
I1
sI691
I1
sI692
I3
sI693
I3
sI694
I1
sI698
I1
sI699
I1
sI702
I1
sI703
I1
sI704
I1
sI705
I3
sI707
I2
sI708
I2
sI710
I1
sI711
I2
sI712
I3
sI713
I1
sI714
I2
sI715
I1
sI716
I2
sI717
I1
sI718
I1
sI720
I1
sI723
I1
sI725
I2
sI727
I1
sI728
I1
sI729
I1
sI733
I3
sI735
I1
sI736
I2
sI739
I1
sI741
I1
sI742
I1
sI744
I2
sI745
I1
sI746
I1
sI747
I1
sI749
I1
sI751
I1
sI752
I1
sI753
I3
sI755
I1
sI756
I2
sI757
I3
sI759
I1
sI760
I1
sI763
I1
sI765
I2
sI768
I1
sI770
I1
sI771
I1
sI772
I1
sI774
I4
sI775
I1
sI777
I1
sI778
I2
sI782
I2
sI783
I1
sI784
I3
sI785
I2
sI788
I2
sI789
I2
sI790
I1
sI791
I2
sI793
I1
sI794
I1
sI795
I2
sI796
I1
sI797
I2
sI798
I2
sI799
I3
sI800
I1
sI801
I2
sI802
I3
sI805
I1
sI808
I1
sI809
I3
sI810
I1
sI812
I2
sI814
I2
sI815
I1
sI816
I2
sI817
I2
sI818
I1
sI819
I1
sI820
I2
sI821
I1
sI825
I3
sI828
I2
sI829
I2
sI830
I1
sI831
I2
sI833
I1
sI838
I1
sI839
I1
sI840
I1
sI844
I1
sI848
I1
sI849
I1
sI851
I2
sI853
I1
sI855
I2
sI857
I1
sI860
I1
sI861
I1
sI862
I4
sI863
I2
sI864
I1
sI865
I2
sI866
I2
sI870
I1
sI872
I2
sI877
I1
sI878
I1
sI879
I2
sI880
I2
sI885
I1
sI886
I1
sI887
I2
sI888
I1
sI890
I1
sI893
I1
sI896
I1
sI897
I1
sI902
I1
sI903
I1
sI907
I1
sI909
I1
sI910
I1
sI911
I1
sI915
I3
sI916
I1
sI918
I2
sI919
I1
sI920
I1
sI926
I1
sI927
I2
sI928
I1
sI931
I1
sI932
I1
sI933
I1
sI934
I2
sI936
I2
sI937
I2
sI939
I1
sI941
I1
sI942
I1
sI944
I1
sI946
I1
sI949
I1
sI951
I3
sI952
I1
sI953
I1
sI956
I1
sI957
I1
sI961
I1
sI964
I1
sI967
I1
sI969
I1
sI970
I2
sI972
I1
sI973
I1
sI974
I1
sI976
I1
sI977
I2
sI980
I1
sI981
I1
sI984
I1
sI986
I1
sI987
I1
sI988
I1
sI989
I2
sI991
I2
sI993
I3
sI997
I1
sI998
I1
sI1000
I1
sI1001
I1
sI1002
I3
sI1003
I1
sI1004
I1
sI1008
I1
sI1009
I1
sI1010
I1
sI1015
I1
sI1019
I3
sI1020
I1
sI1025
I2
sI1026
I1
sI1028
I1
sI1029
I3
sI1032
I1
sI1035
I1
sI1036
I1
sI1037
I2
sI1040
I1
sI1041
I1
sI1044
I1
sI1045
I3
sI1046
I1
sI1047
I1
sI1051
I1
sI1052
I1
sI1059
I1
sI1062
I1
sI1063
I1
sI1067
I1
sI1071
I1
sI1072
I1
sI1073
I1
sI1075
I2
sI1077
I1
sI1081
I1
sI1082
I1
sI1084
I1
sI1085
I1
sI1086
I3
sI1087
I1
sI1089
I2
sI1091
I1
sI1092
I1
sI1093
I1
sI1095
I1
sI1099
I1
sI1105
I1
sI1106
I2
sI1107
I1
sI1109
I1
sI1113
I1
sI1115
I1
sI1118
I2
sI1119
I1
sI1120
I1
sI1121
I3
sI1123
I1
sI1124
I1
sI1125
I1
sI1128
I1
sI1129
I1
sI1132
I2
sI1133
I1
sI1134
I1
sI1137
I1
sI1145
I1
sI1149
I1
sI1150
I1
sI1152
I1
sI1154
I1
sI1156
I1
sI1163
I1
sI1166
I3
sI1170
I1
sI1171
I1
sI1177
I1
sI1180
I1
sI1181
I2
sI1182
I1
sI1186
I1
sI1191
I1
sI1192
I1
sI1193
I1
sI1194
I1
sI1197
I5
sI1203
I1
sI1208
I1
sI1209
I1
sI1210
I1
sI1216
I1
sI1222
I1
sI1232
I1
sI1238
I1
sI1240
I1
sI1243
I1
sI1246
I1
sI1247
I1
sI1248
I1
sI1255
I1
sI1257
I1
sI1259
I1
sI1260
I1
sI1263
I1
sI1265
I2
sI1266
I1
sI1269
I1
sI1271
I1
sI1273
I1
sI1274
I2
sI1276
I2
sI1277
I1
sI1278
I1
sI1279
I1
sI1285
I1
sI1286
I1
sI1287
I1
sI1290
I1
sI1292
I1
sI1293
I1
sI1296
I1
sI1298
I1
sI1303
I1
sI1311
I1
sI1313
I1
sI1315
I1
sI1316
I1
sI1318
I1
sI1329
I1
sI1330
I1
sI1331
I2
sI1341
I1
sI1343
I1
sI1344
I1
sI1346
I1
sI1348
I2
sI1349
I1
sI1354
I3
sI1358
I1
sI1361
I2
sI1362
I3
sI1363
I2
sI1364
I1
sI1365
I1
sI1366
I1
sI1370
I1
sI1371
I1
sI1374
I1
sI1382
I1
sI1383
I2
sI1385
I1
sI1386
I1
sI1388
I1
sI1394
I2
sI1395
I1
sI1402
I1
sI1405
I1
sI1406
I1
sI1409
I1
sI1417
I1
sI1423
I1
sI1428
I1
sI1433
I1
sI1442
I1
sI1447
I3
sI1449
I4
sI1453
I2
sI1454
I2
sI1456
I2
sI1458
I2
sI1459
I1
sI1460
I1
sI1463
I2
sI1464
I1
sI1465
I2
sI1468
I1
sI1471
I1
sI1472
I1
sI1474
I1
sI1475
I1
sI1479
I2
sI1481
I2
sI1485
I1
sI1491
I1
sI1495
I1
sI1502
I1
sI1504
I1
sI1507
I1
sI1512
I1
sI1521
I1
sI1523
I1
sI1524
I2
sI1526
I1
sI1536
I1
sI1539
I1
sI1540
I1
sI1542
I1
sI1544
I1
sI1550
I3
sI1553
I1
sI1571
I1
sI1575
I1
sI1582
I1
sI1583
I1
sI1584
I1
sI1586
I2
sI1591
I2
sI1598
I1
sI1603
I1
sI1615
I1
sI1617
I2
sI1620
I1
sI1621
I1
sI1622
I1
sI1626
I1
sI1627
I1
sI1632
I2
sI16656
I1
sI1638
I1
sI1639
I1
sI1640
I2
sI1642
I1
sI1643
I1
sI1651
I2
sI1653
I1
sI1656
I1
sI1660
I1
sI1662
I2
sI1665
I1
sI1673
I1
sI1677
I2
sI1678
I1
sI1683
I1
sI1684
I1
sI1685
I1
sI1687
I1
sI1692
I2
sI1694
I2
sI1696
I1
sI1707
I1
sI1716
I1
sI1725
I1
sI1726
I1
sI1731
I1
sI1732
I1
sI1734
I1
sI1736
I1
sI1739
I1
sI1740
I1
sI1741
I1
sI1744
I1
sI1753
I1
sI1760
I1
sI1770
I1
sI1772
I1
sI1774
I1
sI1777
I1
sI1779
I2
sI1785
I1
sI1787
I1
sI1800
I1
sI1801
I1
sI1804
I1
sI1808
I1
sI1813
I1
sI1821
I1
sI1839
I1
sI1842
I1
sI1844
I1
sI1859
I1
sI1862
I1
sI1867
I1
sI1868
I1
sI1870
I1
sI1875
I1
sI10071
I1
sI1883
I1
sI1895
I1
sI1898
I2
sI1900
I1
sI1905
I2
sI1913
I1
sI1921
I1
sI1922
I1
sI1925
I1
sI1941
I1
sI8248
I1
sI1945
I1
sI1951
I1
sI1958
I1
sI1960
I1
sI1963
I1
sI1964
I1
sI1980
I1
sI1984
I1
sI2003
I1
sI2005
I1
sI2007
I1
sI2021
I1
sI2023
I2
sI2026
I1
sI2036
I1
sI2038
I1
sI2039
I1
sI2040
I1
sI2042
I1
sI2046
I1
sI2047
I1
sI2052
I1
sI2054
I1
sI2056
I1
sI2057
I1
sI2059
I1
sI2076
I1
sI2077
I1
sI2082
I1
sI2085
I1
sI2086
I1
sI2090
I1
sI2091
I1
sI2095
I1
sI2102
I1
sI2109
I1
sI2114
I1
sI2118
I1
sI2121
I1
sI2124
I1
sI2126
I1
sI2128
I1
sI2131
I1
sI2136
I2
sI2145
I1
sI2149
I1
sI2155
I1
sI2156
I1
sI2157
I1
sI2168
I1
sI2179
I1
sI2182
I1
sI2185
I1
sI2199
I1
sI2218
I1
sI2222
I1
sI2234
I1
sI2244
I1
sI2255
I2
sI2256
I1
sI2269
I1
sI2270
I2
sI2277
I1
sI2281
I1
sI2286
I1
sI2292
I1
sI2298
I1
sI2320
I1
sI2328
I1
sI2330
I1
sI2333
I1
sI2334
I1
sI2338
I1
sI2342
I1
sI2348
I1
sI2359
I2
sI2362
I1
sI2364
I1
sI2369
I1
sI2370
I2
sI2373
I1
sI2381
I1
sI2385
I1
sI2392
I1
sI2398
I1
sI2403
I1
sI2410
I1
sI2420
I1
sI2421
I1
sI2422
I1
sI2424
I1
sI2426
I1
sI2431
I2
sI2432
I1
sI2434
I1
sI2435
I1
sI2444
I1
sI2453
I1
sI2457
I1
sI2468
I1
sI2469
I1
sI2477
I1
sI2479
I1
sI2481
I1
sI2493
I1
sI2495
I1
sI2496
I1
sI2503
I1
sI2509
I1
sI2511
I1
sI2520
I1
sI2522
I1
sI2526
I1
sI2527
I1
sI2529
I1
sI2539
I1
sI2544
I1
sI2546
I1
sI2549
I1
sI2551
I1
sI2554
I1
sI2556
I1
sI2557
I1
sI2563
I1
sI2565
I2
sI2566
I1
sI2573
I1
sI2582
I1
sI2609
I1
sI2614
I1
sI18185
I1
sI2616
I1
sI10822
I1
sI2635
I1
sI2639
I1
sI2655
I1
sI2671
I1
sI2682
I1
sI2696
I1
sI2700
I2
sI2716
I1
sI2718
I1
sI2719
I1
sI2723
I1
sI2737
I1
sI2746
I1
sI2749
I1
sI2755
I1
sI2775
I1
sI2782
I1
sI2803
I1
sI2807
I1
sI8661
I1
sI2827
I1
sI2839
I1
sI2860
I1
sI2870
I1
sI2872
I1
sI2876
I1
sI2879
I1
sI2882
I1
sI2883
I1
sI2885
I1
sI2892
I1
sI2895
I1
sI2897
I1
sI2901
I1
sI2929
I1
sI2937
I1
sI2955
I2
sI2957
I1
sI2968
I1
sI2970
I1
sI2978
I1
sI2986
I1
sI2988
I1
sI2989
I1
sI2999
I1
sI3005
I1
sI3017
I1
sI3018
I1
sI3037
I1
sI3049
I1
sI3073
I1
sI3074
I1
sI3079
I1
sI3084
I1
sI3110
I1
sI3111
I1
sI3118
I2
sI3121
I1
sI3123
I1
sI3150
I2
sI3155
I1
sI3174
I1
sI3175
I1
sI3186
I1
sI3194
I1
sI3199
I1
sI3200
I1
sI3213
I1
sI3219
I1
sI3247
I1
sI3259
I1
sI3275
I1
sI3286
I1
sI3288
I1
sI3291
I1
sI3307
I1
sI3334
I1
sI3363
I1
sI3390
I1
sI3415
I1
sI3441
I1
sI3444
I1
sI3461
I1
sI3481
I1
sI3483
I1
sI3523
I1
sI3590
I1
sI3599
I1
sI3615
I1
sI3621
I1
sI3681
I1
sI3682
I1
sI3684
I1
sI3696
I1
sI3713
I1
sI3719
I1
sI3722
I1
sI3772
I1
sI3792
I1
sI3810
I1
sI3812
I1
sI12006
I1
sI3838
I1
sI3839
I1
sI3844
I1
sI3845
I1
sI3864
I1
sI3876
I1
sI3885
I2
sI12082
I1
sI3899
I1
sI3908
I1
sI3912
I1
sI3918
I1
sI3935
I1
sI3965
I1
sI3977
I1
sI3986
I1
sI3991
I1
sI4004
I1
sI12207
I1
sI9136
I1
sI4069
I1
sI4070
I1
sI4087
I1
sI4097
I1
sI4109
I1
sI4113
I1
sI4114
I1
sI4120
I1
sI4147
I1
sI4148
I1
sI4166
I1
sI4179
I1
sI4182
I1
sI4216
I1
sI4249
I1
sI4260
I1
sI4263
I1
sI4279
I1
sI4309
I1
sI4333
I1
sI4359
I1
sI4367
I1
sI4368
I1
sI4442
I1
sI4581
I1
sI4593
I1
sI4654
I1
sI4733
I1
sI4773
I1
sI4782
I1
sI4794
I1
sI4811
I1
sI4864
I1
sI4915
I1
sI4930
I1
sI5030
I1
sI5047
I1
sI5061
I1
sI5086
I1
sI9043
I1
sI5137
I1
sI5143
I1
sI5262
I1
sI5344
I1
sI5359
I1
sI5416
I2
sI5431
I1
sI5438
I1
sI5487
I1
sI5493
I1
sI5514
I1
sI5548
I1
sI5631
I1
sI5665
I1
sI9143
I1
sI5723
I1
sI5728
I1
sI14006
I1
sI5859
I1
sI5873
I1
sI5893
I1
sI6051
I1
sI6103
I1
sI6171
I1
sI6195
I1
sI6383
I1
sI6396
I1
sI10627
I1
sI22875
I1
sI3814
I1
sI6674
I1
sI23071
I1
sI14951
I1
sI6869
I1
sI7187
I1
sI7190
I1
sI7398
I2
sI7624
I1
sI7628
I1
sI7719
I1
sI7753
I1
sI7784
I1
sI7786
I1
sI7844
I1
sI7923
I1
sI8001
I1
sI10892
I1
sI8017
I1
sI8106
I1
ssg16
I32307
ssS'LRU2'
p33
(dp34
g6
g0
(g7
tp35
Rp36
sg10
g0
(g7
tp37
Rp38
I1
I10457
sI2
I5156
sI3
I3482
sI4
I2637
sI5
I2125
sI6
I1713
sI7
I1424
sI8
I1215
sI9
I1085
sI10
I960
sI11
I849
sI12
I749
sI13
I695
sI14
I608
sI15
I563
sI16
I519
sI17
I457
sI18
I434
sI19
I413
sI20
I386
sI21
I361
sI22
I343
sI23
I307
sI24
I300
sI25
I252
sI26
I247
sI27
I225
sI28
I219
sI29
I210
sI30
I178
sI31
I163
sI32
I174
sI33
I145
sI34
I135
sI35
I125
sI36
I115
sI37
I121
sI38
I114
sI39
I101
sI40
I103
sI41
I97
sI42
I87
sI43
I77
sI44
I82
sI45
I77
sI46
I80
sI47
I74
sI48
I78
sI49
I77
sI50
I63
sI51
I60
sI52
I59
sI53
I48
sI54
I48
sI55
I42
sI56
I40
sI57
I41
sI58
I38
sI59
I42
sI60
I44
sI61
I38
sI62
I31
sI63
I25
sI64
I24
sI65
I25
sI66
I24
sI67
I21
sI68
I23
sI69
I30
sI70
I30
sI71
I17
sI72
I21
sI73
I16
sI74
I19
sI75
I15
sI76
I9
sI77
I11
sI78
I20
sI79
I18
sI80
I14
sI81
I10
sI82
I14
sI83
I10
sI84
I10
sI85
I12
sI86
I15
sI87
I7
sI88
I10
sI89
I9
sI90
I6
sI91
I12
sI92
I11
sI93
I8
sI94
I5
sI95
I9
sI96
I9
sI97
I8
sI98
I7
sI99
I7
sI100
I9
sI101
I3
sI102
I5
sI103
I5
sI104
I3
sI105
I3
sI106
I7
sI107
I7
sI108
I5
sI109
I4
sI110
I5
sI111
I4
sI112
I4
sI113
I6
sI114
I4
sI116
I1
sI117
I3
sI118
I2
sI119
I3
sI120
I3
sI121
I1
sI123
I2
sI124
I4
sI125
I3
sI126
I2
sI127
I3
sI128
I1
sI129
I2
sI130
I3
sI131
I2
sI132
I2
sI133
I2
sI134
I1
sI135
I4
sI136
I2
sI137
I2
sI138
I2
sI139
I2
sI140
I1
sI142
I2
sI143
I3
sI144
I3
sI145
I3
sI146
I1
sI147
I1
sI148
I1
sI149
I1
sI151
I1
sI152
I1
sI153
I1
sI154
I1
sI155
I1
sI156
I1
sI157
I1
sI158
I1
sI159
I3
sI160
I2
sI161
I2
sI162
I1
sI163
I1
sI164
I2
sI165
I2
sI166
I3
sI167
I2
sI168
I1
sI169
I1
sI170
I3
sI171
I3
sI173
I1
sI174
I2
sI175
I3
sI176
I1
sI177
I2
sI206
I1
sI207
I1
sI279
I1
ssg13
g0
(g7
tp39
Rp40
I0
I17303
sI1
I8310
sI2
I2812
sI3
I1128
sI4
I466
sI5
I207
sI6
I99
sI7
I59
sI8
I29
sI9
I21
sI10
I12
sI11
I6
sI12
I9
sI13
I8
sI14
I6
sI15
I9
sI16
I9
sI17
I12
sI18
I10
sI19
I3
sI20
I10
sI21
I4
sI22
I7
sI23
I3
sI24
I7
sI25
I7
sI26
I7
sI27
I5
sI28
I12
sI29
I14
sI30
I13
sI31
I5
sI32
I7
sI33
I7
sI34
I9
sI35
I6
sI36
I3
sI37
I5
sI38
I9
sI39
I2
sI40
I7
sI41
I5
sI42
I2
sI43
I4
sI44
I9
sI45
I5
sI46
I4
sI47
I6
sI48
I9
sI49
I10
sI50
I10
sI51
I9
sI52
I3
sI53
I11
sI54
I7
sI55
I7
sI56
I3
sI57
I8
sI58
I4
sI59
I10
sI60
I3
sI61
I8
sI62
I6
sI63
I5
sI64
I4
sI65
I2
sI66
I8
sI67
I5
sI68
I6
sI69
I4
sI70
I8
sI71
I5
sI72
I2
sI73
I7
sI74
I2
sI75
I8
sI76
I5
sI77
I4
sI78
I3
sI79
I9
sI80
I10
sI81
I10
sI82
I5
sI83
I15
sI84
I5
sI85
I17
sI86
I10
sI87
I5
sI88
I7
sI89
I10
sI90
I9
sI91
I8
sI92
I8
sI93
I6
sI94
I3
sI95
I4
sI96
I4
sI97
I6
sI98
I7
sI99
I8
sI100
I9
sI101
I4
sI102
I6
sI103
I11
sI104
I9
sI105
I15
sI106
I10
sI107
I11
sI108
I5
sI109
I12
sI110
I6
sI111
I8
sI112
I9
sI113
I3
sI114
I14
sI115
I6
sI116
I7
sI117
I9
sI118
I10
sI119
I18
sI120
I6
sI121
I6
sI122
I6
sI123
I5
sI124
I8
sI125
I11
sI126
I5
sI127
I12
sI128
I11
sI129
I16
sI130
I6
sI131
I9
sI132
I5
sI133
I3
sI134
I5
sI135
I6
sI136
I5
sI137
I7
sI138
I4
sI139
I6
sI140
I5
sI141
I4
sI142
I11
sI143
I9
sI144
I11
sI145
I6
sI146
I3
sI147
I5
sI148
I7
sI149
I6
sI150
I4
sI151
I6
sI152
I5
sI153
I5
sI154
I8
sI155
I4
sI156
I2
sI157
I5
sI158
I3
sI159
I11
sI160
I5
sI161
I11
sI162
I1
sI163
I5
sI164
I6
sI165
I5
sI166
I5
sI167
I7
sI168
I9
sI169
I11
sI170
I10
sI171
I5
sI172
I6
sI173
I7
sI174
I7
sI175
I6
sI176
I13
sI177
I7
sI178
I9
sI179
I11
sI180
I9
sI181
I7
sI182
I6
sI183
I4
sI184
I8
sI185
I7
sI186
I8
sI187
I12
sI188
I4
sI189
I6
sI190
I5
sI192
I3
sI193
I10
sI194
I1
sI195
I6
sI196
I5
sI197
I4
sI198
I5
sI199
I5
sI200
I2
sI201
I4
sI202
I3
sI203
I5
sI204
I9
sI205
I6
sI206
I5
sI207
I4
sI208
I4
sI209
I4
sI210
I6
sI211
I10
sI212
I5
sI213
I13
sI214
I5
sI215
I12
sI216
I10
sI217
I14
sI218
I3
sI219
I7
sI220
I10
sI221
I7
sI222
I6
sI223
I7
sI224
I8
sI225
I8
sI226
I13
sI227
I13
sI228
I15
sI229
I7
sI230
I10
sI231
I5
sI232
I5
sI233
I14
sI234
I5
sI235
I8
sI236
I10
sI237
I6
sI238
I10
sI239
I5
sI240
I7
sI241
I3
sI242
I9
sI243
I5
sI244
I12
sI245
I14
sI246
I5
sI247
I6
sI248
I8
sI249
I7
sI250
I8
sI251
I7
sI252
I8
sI253
I9
sI254
I9
sI255
I10
sI256
I12
sI257
I18
sI258
I13
sI259
I10
sI260
I9
sI261
I13
sI262
I10
sI263
I7
sI264
I7
sI265
I5
sI266
I8
sI267
I4
sI268
I5
sI269
I5
sI270
I6
sI271
I7
sI272
I5
sI273
I20
sI274
I4
sI275
I9
sI276
I9
sI277
I12
sI278
I6
sI279
I10
sI280
I6
sI281
I5
sI282
I10
sI283
I7
sI284
I6
sI285
I3
sI286
I8
sI287
I8
sI288
I7
sI289
I9
sI290
I10
sI291
I8
sI292
I6
sI293
I2
sI294
I5
sI295
I13
sI296
I8
sI297
I11
sI298
I2
sI299
I4
sI300
I5
sI301
I4
sI302
I6
sI303
I11
sI304
I12
sI305
I4
sI306
I10
sI307
I4
sI308
I3
sI309
I9
sI310
I7
sI311
I4
sI312
I3
sI313
I5
sI314
I8
sI315
I7
sI316
I6
sI317
I2
sI318
I8
sI319
I7
sI320
I8
sI321
I10
sI322
I13
sI323
I3
sI324
I9
sI325
I6
sI326
I5
sI327
I4
sI328
I4
sI329
I9
sI330
I6
sI331
I11
sI332
I12
sI333
I6
sI334
I5
sI335
I8
sI336
I8
sI337
I6
sI338
I4
sI339
I7
sI340
I4
sI341
I1
sI342
I4
sI343
I7
sI344
I7
sI345
I11
sI346
I13
sI347
I7
sI348
I9
sI349
I8
sI350
I9
sI351
I8
sI352
I7
sI353
I2
sI354
I9
sI355
I4
sI356
I11
sI357
I13
sI358
I6
sI359
I8
sI360
I4
sI361
I13
sI362
I3
sI363
I9
sI364
I4
sI365
I6
sI366
I7
sI367
I5
sI368
I12
sI369
I5
sI370
I5
sI371
I6
sI372
I9
sI373
I6
sI374
I7
sI375
I7
sI376
I4
sI377
I4
sI378
I2
sI379
I3
sI380
I9
sI381
I7
sI382
I7
sI383
I3
sI384
I8
sI385
I6
sI386
I7
sI387
I2
sI388
I3
sI389
I2
sI390
I5
sI391
I4
sI392
I5
sI393
I5
sI394
I7
sI395
I3
sI396
I4
sI397
I7
sI398
I4
sI399
I5
sI400
I7
sI401
I5
sI402
I5
sI403
I6
sI404
I7
sI405
I4
sI406
I2
sI407
I6
sI408
I4
sI410
I4
sI411
I4
sI412
I5
sI413
I6
sI414
I5
sI415
I6
sI416
I2
sI417
I3
sI418
I4
sI419
I8
sI420
I6
sI421
I2
sI422
I5
sI423
I7
sI424
I5
sI425
I5
sI426
I6
sI427
I8
sI428
I6
sI429
I5
sI430
I5
sI431
I6
sI432
I8
sI433
I4
sI434
I5
sI435
I3
sI436
I7
sI437
I5
sI438
I4
sI439
I7
sI440
I7
sI441
I2
sI443
I5
sI444
I4
sI445
I5
sI446
I4
sI447
I5
sI448
I3
sI449
I4
sI450
I10
sI451
I2
sI452
I4
sI453
I4
sI454
I5
sI455
I3
sI456
I4
sI457
I7
sI458
I2
sI459
I1
sI460
I6
sI461
I2
sI462
I3
sI463
I5
sI464
I3
sI465
I5
sI466
I7
sI467
I5
sI468
I4
sI469
I3
sI470
I5
sI471
I3
sI473
I3
sI474
I5
sI475
I3
sI476
I6
sI477
I6
sI478
I5
sI479
I6
sI480
I7
sI481
I4
sI482
I6
sI483
I9
sI484
I7
sI485
I5
sI486
I8
sI487
I6
sI488
I4
sI489
I5
sI490
I8
sI491
I2
sI492
I4
sI493
I3
sI494
I6
sI495
I5
sI496
I5
sI497
I4
sI498
I4
sI499
I6
sI500
I7
sI501
I8
sI503
I7
sI504
I8
sI505
I10
sI506
I3
sI507
I6
sI508
I7
sI509
I8
sI510
I7
sI511
I3
sI512
I5
sI513
I1
sI514
I4
sI515
I3
sI516
I6
sI517
I3
sI518
I8
sI519
I5
sI520
I2
sI521
I7
sI522
I7
sI523
I3
sI524
I1
sI525
I2
sI526
I4
sI527
I6
sI528
I5
sI529
I5
sI530
I4
sI531
I5
sI532
I3
sI533
I1
sI534
I4
sI535
I2
sI536
I5
sI537
I5
sI538
I5
sI539
I8
sI540
I8
sI541
I2
sI542
I3
sI543
I6
sI544
I3
sI545
I6
sI546
I5
sI547
I1
sI549
I1
sI550
I6
sI551
I5
sI552
I2
sI553
I2
sI554
I5
sI555
I1
sI556
I9
sI557
I5
sI558
I5
sI559
I5
sI560
I5
sI561
I4
sI562
I2
sI563
I6
sI564
I4
sI565
I6
sI566
I7
sI567
I8
sI568
I5
sI569
I3
sI570
I4
sI571
I3
sI572
I1
sI573
I2
sI574
I6
sI575
I2
sI576
I4
sI577
I4
sI578
I7
sI579
I4
sI580
I6
sI581
I8
sI582
I3
sI583
I3
sI584
I4
sI585
I5
sI586
I5
sI587
I1
sI588
I4
sI589
I6
sI590
I7
sI591
I6
sI592
I8
sI593
I2
sI594
I1
sI595
I6
sI596
I5
sI597
I6
sI598
I1
sI599
I4
sI600
I3
sI601
I9
sI602
I6
sI603
I3
sI604
I3
sI605
I4
sI606
I7
sI607
I4
sI608
I7
sI609
I6
sI610
I6
sI611
I7
sI612
I6
sI613
I4
sI614
I1
sI615
I8
sI616
I4
sI617
I7
sI618
I3
sI619
I4
sI620
I4
sI621
I8
sI622
I3
sI623
I2
sI624
I7
sI625
I6
sI626
I5
sI627
I7
sI628
I7
sI629
I5
sI630
I7
sI631
I5
sI632
I7
sI633
I3
sI634
I8
sI635
I8
sI636
I4
sI637
I4
sI638
I3
sI639
I5
sI640
I4
sI641
I4
sI642
I3
sI643
I3
sI644
I3
sI645
I4
sI646
I3
sI647
I5
sI648
I1
sI649
I6
sI650
I7
sI651
I4
sI652
I11
sI653
I8
sI654
I7
sI655
I5
sI656
I5
sI657
I5
sI658
I3
sI659
I3
sI660
I7
sI661
I4
sI662
I5
sI663
I6
sI664
I6
sI665
I5
sI666
I7
sI667
I5
sI668
I4
sI669
I2
sI670
I6
sI671
I6
sI672
I3
sI673
I3
sI674
I7
sI675
I6
sI676
I6
sI677
I5
sI678
I4
sI679
I7
sI680
I5
sI681
I10
sI682
I3
sI683
I2
sI684
I4
sI685
I5
sI686
I6
sI687
I7
sI688
I3
sI689
I5
sI690
I8
sI691
I2
sI692
I5
sI693
I4
sI694
I2
sI695
I6
sI696
I9
sI697
I4
sI698
I5
sI699
I2
sI700
I6
sI701
I2
sI702
I6
sI703
I5
sI704
I5
sI705
I3
sI706
I4
sI707
I7
sI708
I8
sI709
I5
sI710
I6
sI711
I2
sI712
I8
sI713
I6
sI714
I3
sI715
I7
sI716
I4
sI717
I6
sI718
I3
sI719
I3
sI720
I7
sI721
I2
sI722
I4
sI723
I1
sI724
I7
sI725
I2
sI726
I1
sI727
I2
sI728
I3
sI729
I3
sI731
I4
sI732
I12
sI733
I8
sI734
I3
sI735
I5
sI736
I3
sI737
I2
sI738
I6
sI739
I4
sI740
I5
sI741
I1
sI742
I5
sI743
I5
sI744
I4
sI745
I4
sI746
I3
sI747
I6
sI748
I5
sI749
I4
sI750
I3
sI751
I5
sI752
I4
sI753
I3
sI754
I6
sI755
I4
sI756
I5
sI757
I6
sI758
I2
sI759
I3
sI760
I3
sI761
I4
sI762
I4
sI763
I7
sI764
I7
sI765
I5
sI766
I6
sI767
I5
sI768
I3
sI769
I4
sI770
I2
sI771
I2
sI772
I5
sI773
I5
sI774
I5
sI775
I11
sI776
I3
sI777
I4
sI778
I4
sI779
I4
sI780
I6
sI781
I6
sI782
I4
sI783
I3
sI784
I3
sI785
I4
sI786
I7
sI787
I12
sI788
I6
sI789
I7
sI790
I7
sI791
I2
sI792
I4
sI793
I2
sI794
I8
sI795
I5
sI796
I5
sI797
I5
sI798
I5
sI799
I3
sI800
I4
sI801
I10
sI802
I4
sI803
I3
sI804
I4
sI805
I9
sI806
I6
sI807
I5
sI808
I5
sI809
I3
sI810
I8
sI811
I4
sI812
I7
sI813
I6
sI814
I9
sI815
I5
sI816
I4
sI817
I9
sI818
I8
sI819
I7
sI820
I2
sI821
I3
sI822
I6
sI823
I6
sI824
I3
sI825
I6
sI826
I4
sI827
I4
sI828
I3
sI829
I3
sI830
I4
sI831
I6
sI832
I3
sI833
I6
sI834
I2
sI835
I11
sI836
I6
sI837
I3
sI838
I7
sI839
I8
sI840
I8
sI841
I3
sI842
I6
sI843
I6
sI844
I3
sI845
I7
sI846
I5
sI847
I4
sI848
I2
sI849
I5
sI850
I1
sI851
I3
sI852
I6
sI853
I3
sI854
I8
sI855
I9
sI856
I6
sI857
I7
sI858
I2
sI859
I11
sI860
I5
sI861
I5
sI862
I3
sI863
I4
sI864
I6
sI865
I8
sI866
I6
sI867
I5
sI868
I4
sI869
I4
sI870
I2
sI871
I5
sI872
I10
sI873
I5
sI874
I6
sI875
I7
sI876
I6
sI877
I7
sI878
I1
sI879
I7
sI880
I4
sI881
I5
sI882
I5
sI883
I6
sI884
I4
sI885
I5
sI886
I6
sI887
I6
sI888
I9
sI889
I2
sI890
I4
sI891
I5
sI892
I9
sI893
I3
sI894
I6
sI895
I7
sI896
I7
sI897
I3
sI898
I4
sI899
I8
sI900
I8
sI901
I4
sI902
I5
sI903
I4
sI904
I4
sI905
I4
sI906
I7
sI907
I3
sI908
I4
sI909
I1
sI910
I9
sI911
I7
sI912
I4
sI913
I4
sI914
I3
sI915
I7
sI916
I8
sI917
I5
sI918
I6
sI919
I6
sI920
I3
sI921
I2
sI922
I5
sI923
I3
sI924
I2
sI925
I4
sI926
I3
sI927
I9
sI928
I6
sI929
I5
sI930
I5
sI931
I8
sI932
I6
sI933
I7
sI934
I1
sI935
I5
sI936
I3
sI937
I5
sI938
I4
sI939
I5
sI940
I2
sI941
I7
sI942
I7
sI943
I3
sI944
I7
sI945
I8
sI946
I8
sI947
I4
sI948
I8
sI949
I5
sI950
I7
sI951
I5
sI952
I4
sI953
I4
sI954
I1
sI955
I8
sI956
I2
sI957
I5
sI958
I5
sI959
I7
sI960
I2
sI961
I6
sI962
I4
sI963
I4
sI964
I2
sI965
I7
sI966
I3
sI967
I6
sI968
I6
sI969
I6
sI970
I4
sI971
I7
sI972
I5
sI973
I5
sI974
I6
sI975
I5
sI976
I3
sI977
I3
sI978
I4
sI979
I7
sI980
I6
sI981
I2
sI982
I9
sI983
I3
sI984
I6
sI985
I6
sI986
I4
sI987
I5
sI988
I2
sI989
I3
sI990
I5
sI991
I9
sI992
I4
sI993
I3
sI994
I8
sI995
I2
sI996
I4
sI997
I6
sI998
I5
sI999
I9
sI1000
I8
sI1001
I10
sI1002
I5
sI1003
I7
sI1004
I5
sI1005
I4
sI1006
I5
sI1007
I8
sI1008
I4
sI1009
I4
sI1010
I4
sI1011
I7
sI1012
I3
sI1013
I3
sI1014
I4
sI1015
I6
sI1016
I7
sI1017
I11
sI1018
I8
sI1019
I6
sI1020
I4
sI1021
I6
sI1022
I6
sI1023
I8
sI1024
I6
sI1025
I8
sI1026
I6
sI1027
I2
sI1028
I4
sI1029
I7
sI1030
I5
sI1031
I8
sI1032
I9
sI1033
I6
sI1034
I4
sI1035
I4
sI1036
I5
sI1037
I4
sI1038
I2
sI1039
I2
sI1040
I4
sI1041
I10
sI1042
I8
sI1043
I8
sI1044
I4
sI1045
I5
sI1046
I5
sI1047
I5
sI1048
I4
sI1049
I5
sI1050
I6
sI1051
I2
sI1052
I5
sI1053
I4
sI1054
I7
sI1055
I4
sI1056
I6
sI1057
I4
sI1058
I4
sI1059
I7
sI1060
I2
sI1061
I4
sI1062
I10
sI1063
I4
sI1064
I10
sI1065
I4
sI1066
I7
sI1067
I3
sI1068
I8
sI1069
I6
sI1070
I8
sI1071
I14
sI1072
I11
sI1073
I5
sI1074
I1
sI1075
I5
sI1076
I6
sI1077
I4
sI1078
I7
sI1079
I2
sI1080
I10
sI1081
I9
sI1082
I1
sI1083
I1
sI1084
I7
sI1085
I5
sI1086
I4
sI1087
I4
sI1088
I4
sI1089
I2
sI1090
I1
sI1091
I4
sI1093
I5
sI1094
I2
sI1095
I5
sI1096
I5
sI1097
I1
sI1098
I4
sI1099
I6
sI1100
I6
sI1101
I4
sI1102
I5
sI1103
I2
sI1104
I6
sI1105
I3
sI1106
I6
sI1107
I6
sI1108
I3
sI1109
I6
sI1110
I6
sI1111
I3
sI1112
I4
sI1113
I5
sI1114
I8
sI1115
I7
sI1116
I5
sI1117
I6
sI1118
I4
sI1119
I10
sI1120
I1
sI1121
I1
sI1122
I6
sI1123
I2
sI1124
I8
sI1125
I3
sI1126
I9
sI1127
I6
sI1128
I3
sI1129
I2
sI1130
I4
sI1131
I8
sI1132
I7
sI1133
I4
sI1134
I5
sI1135
I7
sI1136
I3
sI1137
I5
sI1138
I5
sI1139
I5
sI1140
I4
sI1141
I4
sI1142
I5
sI1143
I5
sI1144
I4
sI1145
I5
sI1146
I11
sI1147
I4
sI1148
I7
sI1149
I11
sI1150
I7
sI1151
I10
sI1152
I4
sI1153
I12
sI1154
I8
sI1155
I3
sI1156
I9
sI1157
I4
sI1158
I5
sI1159
I8
sI1160
I12
sI1161
I6
sI1162
I5
sI1163
I4
sI1164
I8
sI1165
I3
sI1166
I4
sI1167
I7
sI1168
I6
sI1169
I4
sI1170
I5
sI1171
I4
sI1172
I2
sI1173
I7
sI1174
I4
sI1175
I6
sI1176
I4
sI1177
I5
sI1178
I4
sI1179
I5
sI1180
I2
sI1181
I4
sI1182
I3
sI1183
I4
sI1184
I11
sI1185
I3
sI1186
I2
sI1187
I3
sI1188
I4
sI1189
I4
sI1190
I12
sI1191
I8
sI1193
I5
sI1194
I4
sI1195
I5
sI1196
I7
sI1197
I3
sI1198
I5
sI1199
I6
sI1200
I6
sI1201
I6
sI1202
I4
sI1203
I2
sI1204
I5
sI1205
I1
sI1206
I1
sI1207
I5
sI1208
I4
sI1209
I5
sI1210
I7
sI1211
I10
sI1212
I7
sI1213
I5
sI1214
I4
sI1215
I7
sI1216
I6
sI1217
I9
sI1218
I7
sI1219
I3
sI1220
I3
sI1221
I8
sI1222
I4
sI1223
I8
sI1224
I6
sI1225
I4
sI1226
I7
sI1227
I5
sI1228
I3
sI1229
I9
sI1230
I4
sI1231
I5
sI1232
I1
sI1233
I7
sI1234
I2
sI1235
I9
sI1236
I8
sI1237
I2
sI1238
I10
sI1239
I4
sI1240
I4
sI1241
I7
sI1242
I6
sI1243
I3
sI1244
I2
sI1245
I7
sI1246
I4
sI1247
I2
sI1248
I3
sI1249
I2
sI1250
I5
sI1251
I7
sI1252
I1
sI1253
I4
sI1254
I2
sI1255
I3
sI1256
I9
sI1257
I2
sI1258
I6
sI1259
I1
sI1260
I10
sI1261
I8
sI1262
I6
sI1263
I9
sI1264
I8
sI1265
I7
sI1266
I4
sI1267
I4
sI1268
I5
sI1269
I5
sI1270
I5
sI1271
I5
sI1272
I6
sI1273
I9
sI1274
I7
sI1275
I2
sI1276
I3
sI1277
I7
sI1278
I7
sI1279
I5
sI1280
I5
sI1281
I5
sI1282
I1
sI1283
I5
sI1284
I6
sI1285
I5
sI1286
I8
sI1287
I6
sI1288
I2
sI1289
I9
sI1290
I8
sI1291
I4
sI1292
I6
sI1293
I5
sI1294
I6
sI1295
I11
sI1296
I3
sI1297
I5
sI1298
I3
sI1299
I13
sI1300
I7
sI1301
I5
sI1302
I4
sI1303
I10
sI1304
I4
sI1305
I5
sI1306
I5
sI1307
I3
sI1308
I7
sI1309
I9
sI1310
I4
sI1311
I3
sI1312
I6
sI1313
I6
sI1314
I8
sI1315
I8
sI1316
I4
sI1317
I10
sI1318
I6
sI1319
I7
sI1320
I6
sI1321
I6
sI1322
I5
sI1323
I4
sI1324
I2
sI1325
I7
sI1326
I9
sI1327
I7
sI1328
I5
sI1329
I9
sI1330
I9
sI1331
I7
sI1332
I6
sI1333
I7
sI1334
I4
sI1335
I3
sI1336
I4
sI1337
I7
sI1338
I6
sI1339
I4
sI1340
I5
sI1341
I7
sI1342
I6
sI1343
I3
sI1344
I7
sI1345
I8
sI1346
I6
sI1347
I7
sI1348
I1
sI1349
I7
sI1350
I6
sI1351
I8
sI1352
I9
sI1353
I9
sI1354
I2
sI1355
I8
sI1356
I3
sI1357
I9
sI1358
I8
sI1359
I6
sI1360
I2
sI1361
I4
sI1362
I3
sI1363
I7
sI1364
I5
sI1365
I9
sI1366
I2
sI1367
I2
sI1368
I6
sI1369
I5
sI1370
I5
sI1371
I5
sI1372
I5
sI1373
I3
sI1374
I7
sI1375
I12
sI1376
I6
sI1377
I8
sI1378
I13
sI1379
I6
sI1380
I7
sI1381
I9
sI1382
I9
sI1383
I4
sI1384
I14
sI1385
I8
sI1386
I3
sI1387
I4
sI1388
I7
sI1389
I5
sI1390
I4
sI1391
I9
sI1392
I8
sI1393
I8
sI1394
I11
sI1395
I5
sI1396
I6
sI1397
I13
sI1398
I4
sI1399
I6
sI1400
I6
sI1401
I7
sI1402
I8
sI1403
I6
sI1404
I4
sI1405
I11
sI1406
I3
sI1407
I5
sI1408
I8
sI1409
I6
sI1410
I6
sI1411
I4
sI1412
I5
sI1413
I10
sI1414
I8
sI1415
I7
sI1416
I8
sI1417
I2
sI1418
I10
sI1419
I3
sI1420
I7
sI1421
I6
sI1422
I10
sI1423
I11
sI1424
I10
sI1425
I8
sI1426
I8
sI1427
I8
sI1428
I8
sI1429
I5
sI1430
I7
sI1431
I6
sI1432
I6
sI1433
I6
sI1434
I8
sI1435
I9
sI1436
I10
sI1437
I9
sI1438
I6
sI1439
I3
sI1440
I5
sI1441
I8
sI1442
I3
sI1443
I2
sI1444
I5
sI1445
I10
sI1446
I3
sI1447
I7
sI1448
I6
sI1449
I5
sI1450
I8
sI1451
I6
sI1452
I5
sI1453
I4
sI1454
I6
sI1455
I8
sI1456
I6
sI1457
I5
sI1458
I2
sI1459
I7
sI1460
I6
sI1461
I11
sI1462
I8
sI1463
I6
sI1464
I10
sI1465
I8
sI1466
I5
sI1467
I9
sI1468
I10
sI1469
I9
sI1470
I5
sI1471
I2
sI1472
I3
sI1473
I7
sI1474
I3
sI1475
I4
sI1476
I8
sI1477
I6
sI1478
I5
sI1479
I3
sI1480
I11
sI1481
I8
sI1482
I4
sI1483
I9
sI1484
I8
sI1485
I9
sI1486
I10
sI1487
I4
sI1488
I9
sI1489
I7
sI1490
I3
sI1491
I6
sI1492
I7
sI1493
I7
sI1494
I14
sI1495
I4
sI1496
I6
sI1497
I6
sI1498
I2
sI1499
I6
sI1500
I7
sI1501
I6
sI1502
I7
sI1503
I4
sI1504
I6
sI1505
I4
sI1506
I6
sI1507
I6
sI1508
I5
sI1509
I8
sI1510
I7
sI1511
I8
sI1512
I4
sI1513
I7
sI1514
I3
sI1515
I2
sI1516
I4
sI1517
I3
sI1518
I9
sI1519
I9
sI1520
I8
sI1521
I6
sI1522
I6
sI1523
I6
sI1524
I5
sI1525
I3
sI1526
I8
sI1527
I5
sI1528
I7
sI1529
I6
sI1530
I3
sI1531
I8
sI1532
I6
sI1533
I6
sI1534
I4
sI1535
I4
sI1536
I6
sI1537
I4
sI1538
I7
sI1539
I5
sI1540
I9
sI1541
I4
sI1542
I2
sI1543
I1
sI1544
I5
sI1545
I5
sI1546
I5
sI1547
I2
sI1548
I5
sI1549
I1
sI1550
I6
sI1551
I7
sI1552
I6
sI1553
I8
sI1554
I2
sI1555
I7
sI1556
I5
sI1557
I4
sI1558
I6
sI1559
I6
sI1560
I7
sI1561
I5
sI1562
I9
sI1563
I8
sI1564
I8
sI1565
I2
sI1566
I6
sI1567
I4
sI1568
I7
sI1569
I3
sI1570
I8
sI1571
I6
sI1572
I10
sI1573
I7
sI1574
I3
sI1575
I5
sI1576
I7
sI1577
I7
sI1578
I6
sI1579
I2
sI1580
I7
sI1581
I8
sI1582
I8
sI1583
I10
sI1584
I6
sI1585
I8
sI1586
I5
sI1587
I7
sI1588
I7
sI1589
I7
sI1590
I8
sI1591
I13
sI1592
I5
sI1593
I5
sI1594
I4
sI1595
I9
sI1596
I7
sI1597
I10
sI1598
I13
sI1599
I6
sI1600
I6
sI1601
I6
sI1602
I9
sI1603
I6
sI1604
I11
sI1605
I7
sI1606
I6
sI1607
I11
sI1608
I11
sI1609
I8
sI1610
I7
sI1611
I7
sI1612
I6
sI1613
I12
sI1614
I5
sI1615
I6
sI1616
I3
sI1617
I11
sI1618
I10
sI1619
I3
sI1620
I9
sI1621
I11
sI1622
I7
sI1623
I13
sI1624
I7
sI1625
I6
sI1626
I4
sI1627
I7
sI1628
I5
sI1629
I5
sI1630
I5
sI1631
I8
sI1632
I6
sI1633
I5
sI1634
I5
sI1635
I11
sI1636
I7
sI1637
I8
sI1638
I1
sI1639
I3
sI1640
I1
sI1641
I7
sI1642
I4
sI1643
I6
sI1644
I6
sI1645
I2
sI1646
I7
sI1647
I6
sI1648
I8
sI1649
I3
sI1650
I7
sI1651
I4
sI1652
I3
sI1653
I12
sI1654
I5
sI1655
I6
sI1656
I3
sI1657
I5
sI1658
I8
sI1659
I8
sI1660
I4
sI1661
I10
sI1662
I7
sI1663
I10
sI1664
I13
sI1665
I12
sI1666
I9
sI1667
I5
sI1668
I7
sI1669
I10
sI1670
I9
sI1671
I10
sI1672
I8
sI1673
I10
sI1674
I7
sI1675
I14
sI1676
I6
sI1677
I7
sI1678
I4
sI1679
I5
sI1680
I8
sI1681
I10
sI1682
I6
sI1683
I6
sI1684
I9
sI1685
I7
sI1686
I9
sI1687
I13
sI1688
I11
sI1689
I11
sI1690
I8
sI1691
I9
sI1692
I8
sI1693
I6
sI1694
I8
sI1695
I10
sI1696
I10
sI1697
I11
sI1698
I5
sI1699
I7
sI1700
I16
sI1701
I12
sI1702
I8
sI1703
I12
sI1704
I5
sI1705
I4
sI1706
I8
sI1707
I7
sI1708
I15
sI1709
I10
sI1710
I11
sI1711
I10
sI1712
I11
sI1713
I11
sI1714
I13
sI1715
I10
sI1716
I12
sI1717
I11
sI1718
I10
sI1719
I7
sI1720
I13
sI1721
I8
sI1722
I4
sI1723
I13
sI1724
I7
sI1725
I6
sI1726
I9
sI1727
I4
sI1728
I5
sI1729
I10
sI1730
I10
sI1731
I10
sI1732
I10
sI1733
I9
sI1734
I8
sI1735
I11
sI1736
I11
sI1737
I10
sI1738
I8
sI1739
I6
sI1740
I10
sI1741
I6
sI1742
I10
sI1743
I8
sI1744
I7
sI1745
I7
sI1746
I14
sI1747
I10
sI1748
I8
sI1749
I9
sI1750
I16
sI1751
I14
sI1752
I9
sI1753
I6
sI1754
I5
sI1755
I5
sI1756
I10
sI1757
I2
sI1758
I9
sI1759
I10
sI1760
I11
sI1761
I9
sI1762
I6
sI1763
I9
sI1764
I7
sI1765
I6
sI1766
I3
sI1767
I7
sI1768
I6
sI1769
I5
sI1770
I5
sI1771
I7
sI1772
I11
sI1773
I6
sI1774
I8
sI1775
I11
sI1776
I7
sI1777
I15
sI1778
I7
sI1779
I6
sI1780
I10
sI1781
I4
sI1782
I4
sI1783
I5
sI1784
I6
sI1785
I12
sI1786
I11
sI1787
I10
sI1788
I9
sI1789
I6
sI1790
I9
sI1791
I11
sI1792
I7
sI1793
I5
sI1794
I6
sI1795
I5
sI1796
I9
sI1797
I3
sI1798
I6
sI1799
I2
sI1800
I5
sI1801
I6
sI1802
I9
sI1803
I10
sI1804
I2
sI1805
I13
sI1806
I13
sI1807
I7
sI1808
I6
sI1809
I10
sI1810
I2
sI1811
I9
sI1812
I4
sI1813
I8
sI1814
I9
sI1815
I9
sI1816
I4
sI1817
I9
sI1818
I10
sI1819
I6
sI1820
I5
sI1821
I3
sI1822
I9
sI1823
I5
sI1824
I5
sI1825
I5
sI1826
I8
sI1827
I7
sI1828
I8
sI1829
I4
sI1830
I4
sI1831
I6
sI1832
I9
sI1833
I10
sI1834
I13
sI1835
I11
sI1836
I9
sI1837
I6
sI1838
I10
sI1839
I6
sI1840
I7
sI1841
I10
sI1842
I5
sI1843
I13
sI1844
I10
sI1845
I5
sI1846
I6
sI1847
I10
sI1848
I7
sI1849
I8
sI1850
I12
sI1851
I11
sI1852
I10
sI1853
I7
sI1854
I5
sI1855
I5
sI1856
I12
sI1857
I5
sI1858
I3
sI1859
I8
sI1860
I5
sI1861
I5
sI1862
I4
sI1863
I5
sI1864
I7
sI1865
I6
sI1866
I5
sI1867
I13
sI1868
I2
sI1869
I5
sI1870
I4
sI1871
I7
sI1872
I6
sI1874
I3
sI1875
I3
sI1876
I2
sI1877
I5
sI1878
I2
sI1879
I2
sI1880
I3
sI1881
I3
sI1882
I5
sI1883
I4
sI1884
I8
sI1885
I3
sI1886
I2
sI1887
I9
sI1888
I5
sI1889
I4
sI1890
I4
sI1891
I1
sI1892
I6
sI1893
I2
sI1894
I6
sI1895
I3
sI1896
I9
sI1897
I9
sI1898
I3
sI1899
I4
sI1900
I6
sI1901
I7
sI1902
I2
sI1903
I5
sI1905
I3
sI1906
I2
sI1907
I4
sI1909
I6
sI1910
I1
sI1911
I1
sI1912
I3
sI1913
I3
sI1914
I2
sI1916
I6
sI1917
I3
sI1918
I2
sI1919
I3
sI1920
I2
sI1921
I3
sI1922
I2
sI1923
I1
sI1924
I3
sI1925
I3
sI1926
I3
sI1927
I3
sI1928
I2
sI1929
I2
sI1931
I3
sI1932
I1
sI1933
I4
sI1934
I1
sI1935
I2
sI1936
I2
sI1938
I3
sI1939
I1
sI1940
I2
sI1942
I3
sI1944
I3
sI1945
I2
sI1946
I1
sI1950
I3
sI1952
I1
sI1955
I2
sI1956
I1
sI1958
I1
sI1959
I1
sI1961
I1
sI1967
I1
sI1970
I1
sI1971
I1
sI1974
I1
sI1976
I1
sI1981
I1
sI1985
I2
sI1989
I1
sI2004
I1
ssg16
I30477
ssS'LRU'
p41
(dp42
g6
g0
(g7
tp43
Rp44
sg10
g0
(g7
tp45
Rp46
I1
I9819
sI2
I5056
sI3
I3395
sI4
I2610
sI5
I2126
sI6
I1738
sI7
I1448
sI8
I1247
sI9
I1114
sI10
I992
sI11
I888
sI12
I815
sI13
I763
sI14
I649
sI15
I627
sI16
I560
sI17
I532
sI18
I497
sI19
I465
sI20
I417
sI21
I436
sI22
I387
sI23
I359
sI24
I331
sI25
I312
sI26
I287
sI27
I289
sI28
I262
sI29
I254
sI30
I233
sI31
I219
sI32
I211
sI33
I195
sI34
I193
sI35
I176
sI36
I170
sI37
I178
sI38
I144
sI39
I146
sI40
I142
sI41
I136
sI42
I146
sI43
I136
sI44
I125
sI45
I123
sI46
I112
sI47
I113
sI48
I108
sI49
I109
sI50
I93
sI51
I96
sI52
I86
sI53
I89
sI54
I83
sI55
I73
sI56
I80
sI57
I79
sI58
I69
sI59
I71
sI60
I67
sI61
I61
sI62
I61
sI63
I59
sI64
I49
sI65
I56
sI66
I56
sI67
I43
sI68
I57
sI69
I53
sI70
I48
sI71
I40
sI72
I42
sI73
I41
sI74
I46
sI75
I36
sI76
I36
sI77
I33
sI78
I42
sI79
I38
sI80
I29
sI81
I35
sI82
I27
sI83
I25
sI84
I29
sI85
I30
sI86
I27
sI87
I22
sI88
I29
sI89
I23
sI90
I24
sI91
I26
sI92
I18
sI93
I25
sI94
I17
sI95
I23
sI96
I21
sI97
I21
sI98
I18
sI99
I20
sI100
I15
sI101
I13
sI102
I14
sI103
I16
sI104
I11
sI105
I15
sI106
I16
sI107
I12
sI108
I14
sI109
I14
sI110
I11
sI111
I14
sI112
I14
sI113
I16
sI114
I11
sI115
I8
sI116
I10
sI117
I13
sI118
I7
sI119
I10
sI120
I8
sI121
I10
sI122
I10
sI123
I14
sI124
I11
sI125
I10
sI126
I9
sI127
I12
sI128
I11
sI129
I13
sI130
I9
sI131
I9
sI132
I10
sI133
I12
sI134
I11
sI135
I11
sI136
I9
sI137
I6
sI138
I15
sI139
I8
sI140
I15
sI141
I9
sI142
I5
sI143
I10
sI144
I6
sI145
I7
sI146
I10
sI147
I5
sI148
I9
sI149
I12
sI150
I5
sI151
I9
sI152
I4
sI153
I10
sI154
I8
sI155
I3
sI156
I3
sI157
I11
sI158
I7
sI159
I7
sI160
I6
sI161
I7
sI162
I6
sI163
I6
sI164
I11
sI165
I6
sI166
I8
sI167
I2
sI168
I6
sI169
I5
sI170
I7
sI171
I8
sI172
I3
sI173
I6
sI174
I4
sI175
I4
sI176
I5
sI177
I6
sI178
I4
sI179
I5
sI181
I5
sI182
I4
sI183
I3
sI184
I5
sI185
I6
sI186
I2
sI187
I4
sI188
I2
sI189
I5
sI190
I3
sI191
I4
sI192
I1
sI193
I3
sI194
I4
sI195
I4
sI196
I3
sI197
I4
sI198
I4
sI199
I4
sI200
I2
sI201
I5
sI202
I2
sI205
I3
sI206
I4
sI207
I2
sI208
I2
sI209
I1
sI210
I2
sI211
I1
sI212
I2
sI213
I2
sI214
I2
sI216
I3
sI217
I1
sI219
I1
sI221
I2
sI222
I1
sI223
I3
sI224
I3
sI225
I3
sI226
I1
sI227
I1
sI229
I2
sI230
I1
sI231
I1
sI232
I3
sI233
I1
sI235
I1
sI236
I3
sI238
I3
sI239
I3
sI240
I2
sI241
I3
sI242
I2
sI243
I1
sI244
I1
sI246
I1
sI247
I1
sI248
I1
sI249
I2
sI250
I4
sI251
I3
sI252
I2
sI253
I1
sI254
I3
sI255
I2
sI256
I1
sI257
I3
sI259
I1
sI260
I2
sI261
I3
sI262
I4
sI265
I1
sI266
I1
sI267
I1
sI268
I1
sI270
I1
sI271
I1
sI272
I1
sI273
I1
sI274
I2
sI275
I5
sI276
I2
sI277
I1
sI278
I2
sI279
I2
sI283
I2
sI284
I1
sI286
I3
sI287
I2
sI288
I1
sI289
I4
sI290
I3
sI291
I2
sI292
I1
sI293
I3
sI294
I4
sI296
I1
sI299
I1
sI300
I2
sI301
I2
sI302
I1
sI303
I1
sI304
I2
sI305
I1
sI306
I2
sI307
I1
sI308
I2
sI309
I1
sI311
I1
sI313
I3
sI314
I2
sI315
I1
sI317
I1
sI318
I1
sI319
I2
sI320
I1
sI321
I1
sI322
I1
sI323
I1
sI324
I1
sI326
I1
sI327
I3
sI329
I1
sI330
I2
sI331
I1
sI332
I1
sI333
I2
sI335
I1
sI337
I1
sI338
I3
sI339
I1
sI342
I1
sI350
I1
sI353
I1
sI354
I1
sI355
I1
sI357
I1
sI359
I1
sI360
I1
sI363
I1
sI365
I2
sI368
I2
sI369
I1
sI370
I1
sI372
I1
sI377
I1
sI380
I1
sI382
I1
sI383
I1
sI384
I1
sI385
I1
sI391
I1
sI397
I1
sI400
I2
sI402
I1
sI403
I1
sI408
I1
sI413
I1
sI419
I2
sI423
I1
sI430
I1
sI431
I1
sI432
I1
sI439
I1
sI443
I1
sI448
I1
sI454
I1
sI464
I1
sI468
I1
sI469
I1
sI470
I2
sI477
I1
sI478
I1
sI479
I1
sI484
I1
sI490
I2
sI491
I1
sI492
I1
sI497
I1
sI513
I1
sI515
I1
sI516
I1
sI520
I1
sI525
I1
sI534
I1
sI538
I1
sI540
I1
sI541
I1
sI546
I1
sI551
I1
sI564
I1
sI571
I1
sI590
I1
sI603
I1
sI617
I1
sI618
I1
sI624
I1
sI646
I1
sI651
I1
sI664
I1
sI676
I1
sI694
I1
sI705
I1
sI715
I1
sI742
I1
sI771
I1
sI787
I1
sI807
I1
sI819
I1
sI822
I1
sI847
I1
sI1025
I1
ssg13
g0
(g7
tp47
Rp48
I520
I5
sI521
I5
sI522
I7
sI523
I3
sI524
I4
sI525
I2
sI526
I2
sI527
I1
sI533
I3
sI534
I1
sI536
I1
sI542
I1
sI543
I2
sI544
I2
sI545
I1
sI547
I2
sI551
I2
sI557
I1
sI558
I5
sI587
I2
sI588
I6
sI589
I8
sI590
I12
sI591
I11
sI592
I2
sI594
I1
sI598
I4
sI599
I1
sI624
I1
sI626
I1
sI629
I2
sI630
I4
sI631
I7
sI632
I7
sI656
I1
sI657
I2
sI658
I2
sI659
I3
sI660
I6
sI661
I5
sI662
I4
sI663
I12
sI664
I6
sI665
I3
sI666
I1
sI669
I5
sI670
I3
sI671
I4
sI672
I2
sI306
I2
sI307
I3
sI308
I6
sI310
I5
sI311
I6
sI312
I7
sI313
I2
sI314
I13
sI315
I23
sI316
I39
sI317
I59
sI318
I155
sI319
I142
sI320
I212
sI321
I247
sI322
I228
sI323
I250
sI324
I315
sI325
I338
sI326
I396
sI327
I431
sI328
I546
sI329
I610
sI330
I616
sI331
I594
sI332
I563
sI333
I634
sI334
I699
sI335
I809
sI336
I928
sI337
I901
sI338
I973
sI339
I1075
sI340
I1185
sI341
I1295
sI342
I1390
sI343
I1444
sI344
I1282
sI345
I1349
sI346
I1290
sI347
I1281
sI348
I1187
sI349
I1307
sI350
I1087
sI351
I1026
sI352
I1034
sI353
I1033
sI354
I1024
sI355
I970
sI356
I975
sI357
I953
sI358
I794
sI359
I777
sI360
I762
sI361
I746
sI362
I653
sI363
I674
sI364
I662
sI365
I559
sI366
I571
sI367
I541
sI368
I483
sI369
I482
sI370
I436
sI371
I373
sI372
I340
sI373
I293
sI374
I287
sI375
I214
sI376
I227
sI377
I233
sI378
I203
sI379
I165
sI380
I179
sI381
I158
sI382
I136
sI383
I153
sI384
I132
sI385
I120
sI386
I106
sI387
I66
sI388
I62
sI389
I50
sI390
I50
sI391
I39
sI392
I31
sI393
I10
sI394
I19
sI395
I16
sI396
I17
sI397
I4
sI398
I7
sI399
I11
sI400
I12
sI401
I6
sI402
I4
sI403
I2
sI404
I4
sI405
I6
sI406
I5
sI407
I5
sI408
I8
sI409
I7
sI410
I1
sI412
I4
sI413
I3
sI414
I2
sI415
I7
sI416
I7
sI417
I8
sI418
I5
sI419
I3
sI420
I10
sI421
I2
sI423
I1
sI424
I1
sI439
I1
sI440
I1
sI441
I2
sI443
I1
sI444
I2
sI445
I2
sI448
I9
sI449
I1
sI451
I8
sI452
I3
sI453
I2
sI454
I1
sI466
I2
sI468
I2
sI469
I4
sI470
I5
sI471
I2
sI472
I2
sI492
I4
sI493
I7
sI494
I3
sI495
I7
sI496
I10
sI497
I6
sI498
I1
ssg16
I27235
ssS'LRFU'
p49
(dp50
g6
g0
(g7
tp51
Rp52
sg10
g0
(g7
tp53
Rp54
I1
I9827
sI2
I5052
sI3
I3392
sI4
I2606
sI5
I2117
sI6
I1736
sI7
I1445
sI8
I1246
sI9
I1107
sI10
I987
sI11
I883
sI12
I815
sI13
I757
sI14
I641
sI15
I627
sI16
I557
sI17
I526
sI18
I494
sI19
I464
sI20
I418
sI21
I441
sI22
I384
sI23
I357
sI24
I328
sI25
I312
sI26
I285
sI27
I283
sI28
I260
sI29
I250
sI30
I231
sI31
I220
sI32
I211
sI33
I196
sI34
I193
sI35
I174
sI36
I170
sI37
I178
sI38
I142
sI39
I143
sI40
I139
sI41
I130
sI42
I142
sI43
I134
sI44
I124
sI45
I122
sI46
I112
sI47
I112
sI48
I107
sI49
I108
sI50
I94
sI51
I94
sI52
I84
sI53
I86
sI54
I82
sI55
I72
sI56
I78
sI57
I76
sI58
I69
sI59
I71
sI60
I65
sI61
I58
sI62
I58
sI63
I55
sI64
I49
sI65
I52
sI66
I55
sI67
I43
sI68
I54
sI69
I54
sI70
I46
sI71
I41
sI72
I42
sI73
I38
sI74
I45
sI75
I35
sI76
I36
sI77
I33
sI78
I39
sI79
I36
sI80
I27
sI81
I33
sI82
I26
sI83
I25
sI84
I29
sI85
I29
sI86
I25
sI87
I20
sI88
I29
sI89
I23
sI90
I22
sI91
I26
sI92
I16
sI93
I24
sI94
I16
sI95
I22
sI96
I18
sI97
I21
sI98
I12
sI99
I19
sI100
I15
sI101
I11
sI102
I13
sI103
I14
sI104
I10
sI105
I12
sI106
I16
sI107
I12
sI108
I13
sI109
I13
sI110
I9
sI111
I14
sI112
I13
sI113
I14
sI114
I11
sI115
I8
sI116
I10
sI117
I11
sI118
I7
sI119
I10
sI120
I8
sI121
I10
sI122
I9
sI123
I12
sI124
I9
sI125
I9
sI126
I8
sI127
I12
sI128
I10
sI129
I13
sI130
I8
sI131
I8
sI132
I9
sI534
I1
sI134
I10
sI135
I10
sI136
I8
sI137
I6
sI138
I12
sI139
I8
sI140
I12
sI141
I8
sI142
I5
sI143
I9
sI144
I6
sI145
I6
sI146
I9
sI147
I4
sI148
I9
sI149
I12
sI150
I4
sI151
I9
sI152
I4
sI153
I6
sI154
I8
sI155
I2
sI156
I3
sI157
I10
sI158
I7
sI159
I6
sI160
I6
sI161
I7
sI162
I5
sI163
I5
sI164
I8
sI165
I6
sI166
I8
sI167
I1
sI168
I6
sI169
I4
sI170
I6
sI171
I7
sI172
I2
sI173
I4
sI174
I4
sI175
I4
sI176
I5
sI177
I6
sI178
I4
sI179
I4
sI181
I4
sI182
I3
sI183
I2
sI184
I4
sI185
I5
sI186
I2
sI187
I3
sI189
I2
sI190
I3
sI191
I4
sI192
I1
sI193
I3
sI194
I2
sI195
I4
sI196
I3
sI197
I4
sI198
I4
sI199
I3
sI200
I2
sI201
I2
sI202
I1
sI205
I3
sI206
I4
sI207
I2
sI208
I2
sI210
I2
sI274
I2
sI212
I1
sI213
I1
sI214
I1
sI216
I1
sI217
I1
sI219
I1
sI221
I2
sI223
I1
sI224
I2
sI225
I2
sI226
I2
sI227
I1
sI229
I2
sI230
I1
sI231
I1
sI232
I3
sI233
I1
sI235
I1
sI236
I1
sI238
I2
sI239
I2
sI240
I2
sI241
I2
sI242
I1
sI244
I1
sI246
I1
sI247
I1
sI248
I1
sI249
I1
sI250
I1
sI251
I3
sI252
I2
sI253
I1
sI254
I1
sI256
I1
sI257
I2
sI259
I1
sI260
I1
sI261
I3
sI262
I2
sI265
I1
sI266
I1
sI267
I1
sI268
I1
sI270
I1
sI271
I1
sI273
I1
sI564
I1
sI275
I3
sI278
I2
sI279
I2
sI283
I2
sI284
I1
sI286
I2
sI133
I10
sI288
I1
sI289
I4
sI290
I4
sI291
I2
sI292
I1
sI293
I3
sI294
I3
sI299
I1
sI300
I2
sI301
I1
sI302
I1
sI303
I1
sI304
I2
sI305
I1
sI306
I1
sI308
I2
sI309
I1
sI311
I1
sI313
I2
sI314
I1
sI315
I1
sI318
I1
sI319
I2
sI320
I1
sI321
I1
sI323
I1
sI327
I2
sI330
I1
sI331
I1
sI333
I2
sI335
I1
sI337
I1
sI338
I2
sI339
I1
sI742
I1
sI354
I1
sI357
I1
sI546
I1
sI359
I1
sI363
I1
sI365
I1
sI368
I2
sI370
I1
sI372
I1
sI382
I1
sI383
I1
sI432
I1
sI391
I1
sI400
I2
sI402
I1
sI403
I1
sI419
I2
sI423
I1
sI538
I1
sI430
I1
sI431
I1
sI287
I1
sI439
I1
sI443
I1
sI448
I1
sI469
I1
sI470
I1
sI676
I1
sI624
I1
sI478
I1
sI479
I1
sI617
I1
sI484
I1
sI491
I1
sI492
I1
ssg13
g0
(g7
tp55
Rp56
I512
I5
sI513
I2
sI514
I6
sI515
I5
sI516
I1
sI517
I1
sI519
I4
sI520
I5
sI521
I3
sI522
I1
sI523
I4
sI524
I3
sI525
I1
sI527
I3
sI528
I3
sI530
I1
sI532
I1
sI533
I2
sI534
I1
sI535
I3
sI536
I2
sI537
I1
sI538
I1
sI539
I3
sI540
I3
sI541
I1
sI542
I1
sI543
I4
sI544
I3
sI546
I3
sI548
I2
sI549
I3
sI550
I2
sI551
I3
sI554
I1
sI555
I1
sI556
I1
sI557
I1
sI559
I1
sI560
I1
sI569
I1
sI579
I2
sI580
I5
sI581
I10
sI582
I8
sI583
I7
sI584
I5
sI589
I2
sI590
I2
sI598
I1
sI602
I1
sI603
I1
sI611
I2
sI612
I1
sI613
I1
sI626
I1
sI628
I2
sI629
I4
sI630
I2
sI631
I2
sI632
I1
sI634
I2
sI636
I1
sI638
I1
sI647
I4
sI648
I2
sI649
I1
sI650
I2
sI651
I1
sI652
I9
sI653
I2
sI654
I3
sI655
I6
sI656
I2
sI657
I4
sI658
I4
sI659
I1
sI660
I2
sI662
I3
sI664
I1
sI667
I2
sI671
I1
sI672
I1
sI674
I1
sI676
I1
sI677
I1
sI679
I1
sI681
I1
sI682
I1
sI694
I1
sI716
I1
sI726
I1
sI728
I1
sI731
I1
sI733
I2
sI739
I1
sI740
I1
sI293
I1
sI295
I3
sI296
I3
sI297
I5
sI298
I5
sI299
I10
sI300
I19
sI301
I32
sI302
I41
sI303
I45
sI304
I38
sI305
I67
sI306
I64
sI307
I82
sI308
I87
sI309
I138
sI310
I112
sI311
I156
sI312
I158
sI313
I219
sI314
I217
sI315
I282
sI316
I315
sI317
I362
sI318
I416
sI319
I403
sI320
I475
sI321
I549
sI322
I631
sI323
I577
sI324
I605
sI325
I691
sI326
I669
sI327
I781
sI328
I891
sI329
I920
sI330
I932
sI331
I959
sI332
I1029
sI333
I1065
sI334
I1123
sI335
I1162
sI336
I1130
sI337
I1014
sI338
I1060
sI339
I1024
sI340
I994
sI341
I1027
sI342
I929
sI343
I894
sI344
I824
sI345
I813
sI346
I733
sI347
I681
sI348
I676
sI349
I676
sI350
I736
sI351
I692
sI352
I765
sI353
I671
sI354
I611
sI355
I615
sI356
I594
sI357
I540
sI358
I465
sI359
I442
sI360
I370
sI361
I353
sI362
I297
sI363
I296
sI364
I309
sI365
I274
sI366
I279
sI367
I281
sI368
I258
sI369
I270
sI370
I279
sI371
I210
sI372
I206
sI373
I157
sI374
I184
sI375
I156
sI376
I179
sI377
I148
sI378
I130
sI379
I136
sI380
I134
sI381
I85
sI382
I95
sI383
I97
sI384
I95
sI385
I72
sI386
I91
sI387
I74
sI388
I91
sI389
I71
sI390
I84
sI391
I99
sI392
I70
sI393
I69
sI394
I85
sI395
I65
sI396
I67
sI397
I67
sI398
I57
sI399
I51
sI400
I57
sI401
I72
sI402
I65
sI403
I48
sI404
I57
sI405
I52
sI406
I50
sI407
I46
sI408
I60
sI409
I58
sI410
I59
sI411
I59
sI412
I55
sI413
I55
sI414
I55
sI415
I67
sI416
I53
sI417
I55
sI418
I59
sI419
I54
sI420
I49
sI421
I43
sI422
I55
sI423
I50
sI424
I73
sI425
I62
sI426
I52
sI427
I60
sI428
I59
sI429
I57
sI430
I60
sI431
I65
sI432
I57
sI433
I53
sI434
I41
sI435
I49
sI436
I48
sI437
I49
sI438
I48
sI439
I49
sI440
I52
sI441
I42
sI442
I38
sI443
I36
sI444
I42
sI445
I31
sI446
I35
sI447
I34
sI448
I31
sI449
I29
sI450
I30
sI451
I33
sI452
I27
sI453
I17
sI454
I27
sI455
I17
sI456
I29
sI457
I26
sI458
I18
sI459
I18
sI460
I18
sI461
I13
sI462
I18
sI463
I14
sI464
I17
sI465
I13
sI466
I6
sI467
I16
sI468
I17
sI469
I19
sI470
I20
sI471
I8
sI472
I12
sI473
I9
sI474
I11
sI475
I8
sI476
I5
sI477
I10
sI478
I10
sI479
I7
sI480
I4
sI481
I5
sI482
I4
sI483
I8
sI484
I7
sI485
I11
sI486
I8
sI487
I7
sI488
I8
sI489
I11
sI490
I12
sI491
I7
sI492
I7
sI493
I2
sI494
I5
sI495
I3
sI496
I5
sI497
I3
sI498
I3
sI499
I5
sI500
I3
sI501
I4
sI502
I6
sI503
I1
sI504
I4
sI505
I1
sI506
I3
sI507
I4
sI508
I2
sI509
I3
sI510
I4
sI511
I2
ssg16
I27594
ss.